
kernel/kernel:     file format elf64-littleriscv


Disassembly of section .text:

0000000080000000 <_entry>:
    80000000:	00009117          	auipc	sp,0x9
    80000004:	a1010113          	addi	sp,sp,-1520 # 80008a10 <stack0>
    80000008:	6505                	lui	a0,0x1
    8000000a:	f14025f3          	csrr	a1,mhartid
    8000000e:	0585                	addi	a1,a1,1
    80000010:	02b50533          	mul	a0,a0,a1
    80000014:	912a                	add	sp,sp,a0
    80000016:	076000ef          	jal	ra,8000008c <start>

000000008000001a <spin>:
    8000001a:	a001                	j	8000001a <spin>

000000008000001c <timerinit>:
    8000001c:	1141                	addi	sp,sp,-16
    8000001e:	e422                	sd	s0,8(sp)
    80000020:	0800                	addi	s0,sp,16
    80000022:	f14027f3          	csrr	a5,mhartid
    80000026:	0007859b          	sext.w	a1,a5
    8000002a:	0037979b          	slliw	a5,a5,0x3
    8000002e:	02004737          	lui	a4,0x2004
    80000032:	97ba                	add	a5,a5,a4
    80000034:	0200c737          	lui	a4,0x200c
    80000038:	ff873703          	ld	a4,-8(a4) # 200bff8 <_entry-0x7dff4008>
    8000003c:	000f4637          	lui	a2,0xf4
    80000040:	24060613          	addi	a2,a2,576 # f4240 <_entry-0x7ff0bdc0>
    80000044:	9732                	add	a4,a4,a2
    80000046:	e398                	sd	a4,0(a5)
    80000048:	00259693          	slli	a3,a1,0x2
    8000004c:	96ae                	add	a3,a3,a1
    8000004e:	068e                	slli	a3,a3,0x3
    80000050:	00009717          	auipc	a4,0x9
    80000054:	88070713          	addi	a4,a4,-1920 # 800088d0 <timer_scratch>
    80000058:	9736                	add	a4,a4,a3
    8000005a:	ef1c                	sd	a5,24(a4)
    8000005c:	f310                	sd	a2,32(a4)
    8000005e:	34071073          	csrw	mscratch,a4
    80000062:	00006797          	auipc	a5,0x6
    80000066:	ade78793          	addi	a5,a5,-1314 # 80005b40 <timervec>
    8000006a:	30579073          	csrw	mtvec,a5
    8000006e:	300027f3          	csrr	a5,mstatus
    80000072:	0087e793          	ori	a5,a5,8
    80000076:	30079073          	csrw	mstatus,a5
    8000007a:	304027f3          	csrr	a5,mie
    8000007e:	0807e793          	ori	a5,a5,128
    80000082:	30479073          	csrw	mie,a5
    80000086:	6422                	ld	s0,8(sp)
    80000088:	0141                	addi	sp,sp,16
    8000008a:	8082                	ret

000000008000008c <start>:
    8000008c:	1141                	addi	sp,sp,-16
    8000008e:	e406                	sd	ra,8(sp)
    80000090:	e022                	sd	s0,0(sp)
    80000092:	0800                	addi	s0,sp,16
    80000094:	300027f3          	csrr	a5,mstatus
    80000098:	7779                	lui	a4,0xffffe
    8000009a:	7ff70713          	addi	a4,a4,2047 # ffffffffffffe7ff <end+0xffffffff7ffdcabf>
    8000009e:	8ff9                	and	a5,a5,a4
    800000a0:	6705                	lui	a4,0x1
    800000a2:	80070713          	addi	a4,a4,-2048 # 800 <_entry-0x7ffff800>
    800000a6:	8fd9                	or	a5,a5,a4
    800000a8:	30079073          	csrw	mstatus,a5
    800000ac:	00001797          	auipc	a5,0x1
    800000b0:	dc678793          	addi	a5,a5,-570 # 80000e72 <main>
    800000b4:	34179073          	csrw	mepc,a5
    800000b8:	4781                	li	a5,0
    800000ba:	18079073          	csrw	satp,a5
    800000be:	67c1                	lui	a5,0x10
    800000c0:	17fd                	addi	a5,a5,-1 # ffff <_entry-0x7fff0001>
    800000c2:	30279073          	csrw	medeleg,a5
    800000c6:	30379073          	csrw	mideleg,a5
    800000ca:	104027f3          	csrr	a5,sie
    800000ce:	2227e793          	ori	a5,a5,546
    800000d2:	10479073          	csrw	sie,a5
    800000d6:	57fd                	li	a5,-1
    800000d8:	83a9                	srli	a5,a5,0xa
    800000da:	3b079073          	csrw	pmpaddr0,a5
    800000de:	47bd                	li	a5,15
    800000e0:	3a079073          	csrw	pmpcfg0,a5
    800000e4:	00000097          	auipc	ra,0x0
    800000e8:	f38080e7          	jalr	-200(ra) # 8000001c <timerinit>
    800000ec:	f14027f3          	csrr	a5,mhartid
    800000f0:	2781                	sext.w	a5,a5
    800000f2:	823e                	mv	tp,a5
    800000f4:	30200073          	mret
    800000f8:	60a2                	ld	ra,8(sp)
    800000fa:	6402                	ld	s0,0(sp)
    800000fc:	0141                	addi	sp,sp,16
    800000fe:	8082                	ret

0000000080000100 <consolewrite>:
//
// user write()s to the console go here.
//
int
consolewrite(int user_src, uint64 src, int n)
{
    80000100:	715d                	addi	sp,sp,-80
    80000102:	e486                	sd	ra,72(sp)
    80000104:	e0a2                	sd	s0,64(sp)
    80000106:	fc26                	sd	s1,56(sp)
    80000108:	f84a                	sd	s2,48(sp)
    8000010a:	f44e                	sd	s3,40(sp)
    8000010c:	f052                	sd	s4,32(sp)
    8000010e:	ec56                	sd	s5,24(sp)
    80000110:	0880                	addi	s0,sp,80
  int i;

  for(i = 0; i < n; i++){
    80000112:	04c05763          	blez	a2,80000160 <consolewrite+0x60>
    80000116:	8a2a                	mv	s4,a0
    80000118:	84ae                	mv	s1,a1
    8000011a:	89b2                	mv	s3,a2
    8000011c:	4901                	li	s2,0
    char c;
    if(either_copyin(&c, user_src, src+i, 1) == -1)
    8000011e:	5afd                	li	s5,-1
    80000120:	4685                	li	a3,1
    80000122:	8626                	mv	a2,s1
    80000124:	85d2                	mv	a1,s4
    80000126:	fbf40513          	addi	a0,s0,-65
    8000012a:	00002097          	auipc	ra,0x2
    8000012e:	382080e7          	jalr	898(ra) # 800024ac <either_copyin>
    80000132:	01550d63          	beq	a0,s5,8000014c <consolewrite+0x4c>
      break;
    uartputc(c);
    80000136:	fbf44503          	lbu	a0,-65(s0)
    8000013a:	00000097          	auipc	ra,0x0
    8000013e:	780080e7          	jalr	1920(ra) # 800008ba <uartputc>
  for(i = 0; i < n; i++){
    80000142:	2905                	addiw	s2,s2,1
    80000144:	0485                	addi	s1,s1,1
    80000146:	fd299de3          	bne	s3,s2,80000120 <consolewrite+0x20>
    8000014a:	894e                	mv	s2,s3
  }

  return i;
}
    8000014c:	854a                	mv	a0,s2
    8000014e:	60a6                	ld	ra,72(sp)
    80000150:	6406                	ld	s0,64(sp)
    80000152:	74e2                	ld	s1,56(sp)
    80000154:	7942                	ld	s2,48(sp)
    80000156:	79a2                	ld	s3,40(sp)
    80000158:	7a02                	ld	s4,32(sp)
    8000015a:	6ae2                	ld	s5,24(sp)
    8000015c:	6161                	addi	sp,sp,80
    8000015e:	8082                	ret
  for(i = 0; i < n; i++){
    80000160:	4901                	li	s2,0
    80000162:	b7ed                	j	8000014c <consolewrite+0x4c>

0000000080000164 <consoleread>:
// user_dist indicates whether dst is a user
// or kernel address.
//
int
consoleread(int user_dst, uint64 dst, int n)
{
    80000164:	711d                	addi	sp,sp,-96
    80000166:	ec86                	sd	ra,88(sp)
    80000168:	e8a2                	sd	s0,80(sp)
    8000016a:	e4a6                	sd	s1,72(sp)
    8000016c:	e0ca                	sd	s2,64(sp)
    8000016e:	fc4e                	sd	s3,56(sp)
    80000170:	f852                	sd	s4,48(sp)
    80000172:	f456                	sd	s5,40(sp)
    80000174:	f05a                	sd	s6,32(sp)
    80000176:	ec5e                	sd	s7,24(sp)
    80000178:	1080                	addi	s0,sp,96
    8000017a:	8aaa                	mv	s5,a0
    8000017c:	8a2e                	mv	s4,a1
    8000017e:	89b2                	mv	s3,a2
  uint target;
  int c;
  char cbuf;

  target = n;
    80000180:	00060b1b          	sext.w	s6,a2
  acquire(&cons.lock);
    80000184:	00011517          	auipc	a0,0x11
    80000188:	88c50513          	addi	a0,a0,-1908 # 80010a10 <cons>
    8000018c:	00001097          	auipc	ra,0x1
    80000190:	a46080e7          	jalr	-1466(ra) # 80000bd2 <acquire>
  while(n > 0){
    // wait until interrupt handler has put some
    // input into cons.buffer.
    while(cons.r == cons.w){
    80000194:	00011497          	auipc	s1,0x11
    80000198:	87c48493          	addi	s1,s1,-1924 # 80010a10 <cons>
      if(killed(myproc())){
        release(&cons.lock);
        return -1;
      }
      sleep(&cons.r, &cons.lock);
    8000019c:	00011917          	auipc	s2,0x11
    800001a0:	90c90913          	addi	s2,s2,-1780 # 80010aa8 <cons+0x98>
  while(n > 0){
    800001a4:	09305263          	blez	s3,80000228 <consoleread+0xc4>
    while(cons.r == cons.w){
    800001a8:	0984a783          	lw	a5,152(s1)
    800001ac:	09c4a703          	lw	a4,156(s1)
    800001b0:	02f71763          	bne	a4,a5,800001de <consoleread+0x7a>
      if(killed(myproc())){
    800001b4:	00001097          	auipc	ra,0x1
    800001b8:	7f2080e7          	jalr	2034(ra) # 800019a6 <myproc>
    800001bc:	00002097          	auipc	ra,0x2
    800001c0:	13a080e7          	jalr	314(ra) # 800022f6 <killed>
    800001c4:	ed2d                	bnez	a0,8000023e <consoleread+0xda>
      sleep(&cons.r, &cons.lock);
    800001c6:	85a6                	mv	a1,s1
    800001c8:	854a                	mv	a0,s2
    800001ca:	00002097          	auipc	ra,0x2
    800001ce:	e84080e7          	jalr	-380(ra) # 8000204e <sleep>
    while(cons.r == cons.w){
    800001d2:	0984a783          	lw	a5,152(s1)
    800001d6:	09c4a703          	lw	a4,156(s1)
    800001da:	fcf70de3          	beq	a4,a5,800001b4 <consoleread+0x50>
    }

    c = cons.buf[cons.r++ % INPUT_BUF_SIZE];
    800001de:	00011717          	auipc	a4,0x11
    800001e2:	83270713          	addi	a4,a4,-1998 # 80010a10 <cons>
    800001e6:	0017869b          	addiw	a3,a5,1
    800001ea:	08d72c23          	sw	a3,152(a4)
    800001ee:	07f7f693          	andi	a3,a5,127
    800001f2:	9736                	add	a4,a4,a3
    800001f4:	01874703          	lbu	a4,24(a4)
    800001f8:	00070b9b          	sext.w	s7,a4

    if(c == C('D')){  // end-of-file
    800001fc:	4691                	li	a3,4
    800001fe:	06db8463          	beq	s7,a3,80000266 <consoleread+0x102>
      }
      break;
    }

    // copy the input byte to the user-space buffer.
    cbuf = c;
    80000202:	fae407a3          	sb	a4,-81(s0)
    if(either_copyout(user_dst, dst, &cbuf, 1) == -1)
    80000206:	4685                	li	a3,1
    80000208:	faf40613          	addi	a2,s0,-81
    8000020c:	85d2                	mv	a1,s4
    8000020e:	8556                	mv	a0,s5
    80000210:	00002097          	auipc	ra,0x2
    80000214:	246080e7          	jalr	582(ra) # 80002456 <either_copyout>
    80000218:	57fd                	li	a5,-1
    8000021a:	00f50763          	beq	a0,a5,80000228 <consoleread+0xc4>
      break;

    dst++;
    8000021e:	0a05                	addi	s4,s4,1
    --n;
    80000220:	39fd                	addiw	s3,s3,-1

    if(c == '\n'){
    80000222:	47a9                	li	a5,10
    80000224:	f8fb90e3          	bne	s7,a5,800001a4 <consoleread+0x40>
      // a whole line has arrived, return to
      // the user-level read().
      break;
    }
  }
  release(&cons.lock);
    80000228:	00010517          	auipc	a0,0x10
    8000022c:	7e850513          	addi	a0,a0,2024 # 80010a10 <cons>
    80000230:	00001097          	auipc	ra,0x1
    80000234:	a56080e7          	jalr	-1450(ra) # 80000c86 <release>

  return target - n;
    80000238:	413b053b          	subw	a0,s6,s3
    8000023c:	a811                	j	80000250 <consoleread+0xec>
        release(&cons.lock);
    8000023e:	00010517          	auipc	a0,0x10
    80000242:	7d250513          	addi	a0,a0,2002 # 80010a10 <cons>
    80000246:	00001097          	auipc	ra,0x1
    8000024a:	a40080e7          	jalr	-1472(ra) # 80000c86 <release>
        return -1;
    8000024e:	557d                	li	a0,-1
}
    80000250:	60e6                	ld	ra,88(sp)
    80000252:	6446                	ld	s0,80(sp)
    80000254:	64a6                	ld	s1,72(sp)
    80000256:	6906                	ld	s2,64(sp)
    80000258:	79e2                	ld	s3,56(sp)
    8000025a:	7a42                	ld	s4,48(sp)
    8000025c:	7aa2                	ld	s5,40(sp)
    8000025e:	7b02                	ld	s6,32(sp)
    80000260:	6be2                	ld	s7,24(sp)
    80000262:	6125                	addi	sp,sp,96
    80000264:	8082                	ret
      if(n < target){
    80000266:	0009871b          	sext.w	a4,s3
    8000026a:	fb677fe3          	bgeu	a4,s6,80000228 <consoleread+0xc4>
        cons.r--;
    8000026e:	00011717          	auipc	a4,0x11
    80000272:	82f72d23          	sw	a5,-1990(a4) # 80010aa8 <cons+0x98>
    80000276:	bf4d                	j	80000228 <consoleread+0xc4>

0000000080000278 <consputc>:
{
    80000278:	1141                	addi	sp,sp,-16
    8000027a:	e406                	sd	ra,8(sp)
    8000027c:	e022                	sd	s0,0(sp)
    8000027e:	0800                	addi	s0,sp,16
  if(c == BACKSPACE){
    80000280:	10000793          	li	a5,256
    80000284:	00f50a63          	beq	a0,a5,80000298 <consputc+0x20>
    uartputc_sync(c);
    80000288:	00000097          	auipc	ra,0x0
    8000028c:	560080e7          	jalr	1376(ra) # 800007e8 <uartputc_sync>
}
    80000290:	60a2                	ld	ra,8(sp)
    80000292:	6402                	ld	s0,0(sp)
    80000294:	0141                	addi	sp,sp,16
    80000296:	8082                	ret
    uartputc_sync('\b'); uartputc_sync(' '); uartputc_sync('\b');
    80000298:	4521                	li	a0,8
    8000029a:	00000097          	auipc	ra,0x0
    8000029e:	54e080e7          	jalr	1358(ra) # 800007e8 <uartputc_sync>
    800002a2:	02000513          	li	a0,32
    800002a6:	00000097          	auipc	ra,0x0
    800002aa:	542080e7          	jalr	1346(ra) # 800007e8 <uartputc_sync>
    800002ae:	4521                	li	a0,8
    800002b0:	00000097          	auipc	ra,0x0
    800002b4:	538080e7          	jalr	1336(ra) # 800007e8 <uartputc_sync>
    800002b8:	bfe1                	j	80000290 <consputc+0x18>

00000000800002ba <consoleintr>:
// do erase/kill processing, append to cons.buf,
// wake up consoleread() if a whole line has arrived.
//
void
consoleintr(int c)
{
    800002ba:	1101                	addi	sp,sp,-32
    800002bc:	ec06                	sd	ra,24(sp)
    800002be:	e822                	sd	s0,16(sp)
    800002c0:	e426                	sd	s1,8(sp)
    800002c2:	e04a                	sd	s2,0(sp)
    800002c4:	1000                	addi	s0,sp,32
    800002c6:	84aa                	mv	s1,a0
  acquire(&cons.lock);
    800002c8:	00010517          	auipc	a0,0x10
    800002cc:	74850513          	addi	a0,a0,1864 # 80010a10 <cons>
    800002d0:	00001097          	auipc	ra,0x1
    800002d4:	902080e7          	jalr	-1790(ra) # 80000bd2 <acquire>

  switch(c){
    800002d8:	47d5                	li	a5,21
    800002da:	0af48663          	beq	s1,a5,80000386 <consoleintr+0xcc>
    800002de:	0297ca63          	blt	a5,s1,80000312 <consoleintr+0x58>
    800002e2:	47a1                	li	a5,8
    800002e4:	0ef48763          	beq	s1,a5,800003d2 <consoleintr+0x118>
    800002e8:	47c1                	li	a5,16
    800002ea:	10f49a63          	bne	s1,a5,800003fe <consoleintr+0x144>
  case C('P'):  // Print process list.
    procdump();
    800002ee:	00002097          	auipc	ra,0x2
    800002f2:	214080e7          	jalr	532(ra) # 80002502 <procdump>
      }
    }
    break;
  }
  
  release(&cons.lock);
    800002f6:	00010517          	auipc	a0,0x10
    800002fa:	71a50513          	addi	a0,a0,1818 # 80010a10 <cons>
    800002fe:	00001097          	auipc	ra,0x1
    80000302:	988080e7          	jalr	-1656(ra) # 80000c86 <release>
}
    80000306:	60e2                	ld	ra,24(sp)
    80000308:	6442                	ld	s0,16(sp)
    8000030a:	64a2                	ld	s1,8(sp)
    8000030c:	6902                	ld	s2,0(sp)
    8000030e:	6105                	addi	sp,sp,32
    80000310:	8082                	ret
  switch(c){
    80000312:	07f00793          	li	a5,127
    80000316:	0af48e63          	beq	s1,a5,800003d2 <consoleintr+0x118>
    if(c != 0 && cons.e-cons.r < INPUT_BUF_SIZE){
    8000031a:	00010717          	auipc	a4,0x10
    8000031e:	6f670713          	addi	a4,a4,1782 # 80010a10 <cons>
    80000322:	0a072783          	lw	a5,160(a4)
    80000326:	09872703          	lw	a4,152(a4)
    8000032a:	9f99                	subw	a5,a5,a4
    8000032c:	07f00713          	li	a4,127
    80000330:	fcf763e3          	bltu	a4,a5,800002f6 <consoleintr+0x3c>
      c = (c == '\r') ? '\n' : c;
    80000334:	47b5                	li	a5,13
    80000336:	0cf48763          	beq	s1,a5,80000404 <consoleintr+0x14a>
      consputc(c);
    8000033a:	8526                	mv	a0,s1
    8000033c:	00000097          	auipc	ra,0x0
    80000340:	f3c080e7          	jalr	-196(ra) # 80000278 <consputc>
      cons.buf[cons.e++ % INPUT_BUF_SIZE] = c;
    80000344:	00010797          	auipc	a5,0x10
    80000348:	6cc78793          	addi	a5,a5,1740 # 80010a10 <cons>
    8000034c:	0a07a683          	lw	a3,160(a5)
    80000350:	0016871b          	addiw	a4,a3,1
    80000354:	0007061b          	sext.w	a2,a4
    80000358:	0ae7a023          	sw	a4,160(a5)
    8000035c:	07f6f693          	andi	a3,a3,127
    80000360:	97b6                	add	a5,a5,a3
    80000362:	00978c23          	sb	s1,24(a5)
      if(c == '\n' || c == C('D') || cons.e-cons.r == INPUT_BUF_SIZE){
    80000366:	47a9                	li	a5,10
    80000368:	0cf48563          	beq	s1,a5,80000432 <consoleintr+0x178>
    8000036c:	4791                	li	a5,4
    8000036e:	0cf48263          	beq	s1,a5,80000432 <consoleintr+0x178>
    80000372:	00010797          	auipc	a5,0x10
    80000376:	7367a783          	lw	a5,1846(a5) # 80010aa8 <cons+0x98>
    8000037a:	9f1d                	subw	a4,a4,a5
    8000037c:	08000793          	li	a5,128
    80000380:	f6f71be3          	bne	a4,a5,800002f6 <consoleintr+0x3c>
    80000384:	a07d                	j	80000432 <consoleintr+0x178>
    while(cons.e != cons.w &&
    80000386:	00010717          	auipc	a4,0x10
    8000038a:	68a70713          	addi	a4,a4,1674 # 80010a10 <cons>
    8000038e:	0a072783          	lw	a5,160(a4)
    80000392:	09c72703          	lw	a4,156(a4)
          cons.buf[(cons.e-1) % INPUT_BUF_SIZE] != '\n'){
    80000396:	00010497          	auipc	s1,0x10
    8000039a:	67a48493          	addi	s1,s1,1658 # 80010a10 <cons>
    while(cons.e != cons.w &&
    8000039e:	4929                	li	s2,10
    800003a0:	f4f70be3          	beq	a4,a5,800002f6 <consoleintr+0x3c>
          cons.buf[(cons.e-1) % INPUT_BUF_SIZE] != '\n'){
    800003a4:	37fd                	addiw	a5,a5,-1
    800003a6:	07f7f713          	andi	a4,a5,127
    800003aa:	9726                	add	a4,a4,s1
    while(cons.e != cons.w &&
    800003ac:	01874703          	lbu	a4,24(a4)
    800003b0:	f52703e3          	beq	a4,s2,800002f6 <consoleintr+0x3c>
      cons.e--;
    800003b4:	0af4a023          	sw	a5,160(s1)
      consputc(BACKSPACE);
    800003b8:	10000513          	li	a0,256
    800003bc:	00000097          	auipc	ra,0x0
    800003c0:	ebc080e7          	jalr	-324(ra) # 80000278 <consputc>
    while(cons.e != cons.w &&
    800003c4:	0a04a783          	lw	a5,160(s1)
    800003c8:	09c4a703          	lw	a4,156(s1)
    800003cc:	fcf71ce3          	bne	a4,a5,800003a4 <consoleintr+0xea>
    800003d0:	b71d                	j	800002f6 <consoleintr+0x3c>
    if(cons.e != cons.w){
    800003d2:	00010717          	auipc	a4,0x10
    800003d6:	63e70713          	addi	a4,a4,1598 # 80010a10 <cons>
    800003da:	0a072783          	lw	a5,160(a4)
    800003de:	09c72703          	lw	a4,156(a4)
    800003e2:	f0f70ae3          	beq	a4,a5,800002f6 <consoleintr+0x3c>
      cons.e--;
    800003e6:	37fd                	addiw	a5,a5,-1
    800003e8:	00010717          	auipc	a4,0x10
    800003ec:	6cf72423          	sw	a5,1736(a4) # 80010ab0 <cons+0xa0>
      consputc(BACKSPACE);
    800003f0:	10000513          	li	a0,256
    800003f4:	00000097          	auipc	ra,0x0
    800003f8:	e84080e7          	jalr	-380(ra) # 80000278 <consputc>
    800003fc:	bded                	j	800002f6 <consoleintr+0x3c>
    if(c != 0 && cons.e-cons.r < INPUT_BUF_SIZE){
    800003fe:	ee048ce3          	beqz	s1,800002f6 <consoleintr+0x3c>
    80000402:	bf21                	j	8000031a <consoleintr+0x60>
      consputc(c);
    80000404:	4529                	li	a0,10
    80000406:	00000097          	auipc	ra,0x0
    8000040a:	e72080e7          	jalr	-398(ra) # 80000278 <consputc>
      cons.buf[cons.e++ % INPUT_BUF_SIZE] = c;
    8000040e:	00010797          	auipc	a5,0x10
    80000412:	60278793          	addi	a5,a5,1538 # 80010a10 <cons>
    80000416:	0a07a703          	lw	a4,160(a5)
    8000041a:	0017069b          	addiw	a3,a4,1
    8000041e:	0006861b          	sext.w	a2,a3
    80000422:	0ad7a023          	sw	a3,160(a5)
    80000426:	07f77713          	andi	a4,a4,127
    8000042a:	97ba                	add	a5,a5,a4
    8000042c:	4729                	li	a4,10
    8000042e:	00e78c23          	sb	a4,24(a5)
        cons.w = cons.e;
    80000432:	00010797          	auipc	a5,0x10
    80000436:	66c7ad23          	sw	a2,1658(a5) # 80010aac <cons+0x9c>
        wakeup(&cons.r);
    8000043a:	00010517          	auipc	a0,0x10
    8000043e:	66e50513          	addi	a0,a0,1646 # 80010aa8 <cons+0x98>
    80000442:	00002097          	auipc	ra,0x2
    80000446:	c70080e7          	jalr	-912(ra) # 800020b2 <wakeup>
    8000044a:	b575                	j	800002f6 <consoleintr+0x3c>

000000008000044c <consoleinit>:

void
consoleinit(void)
{
    8000044c:	1141                	addi	sp,sp,-16
    8000044e:	e406                	sd	ra,8(sp)
    80000450:	e022                	sd	s0,0(sp)
    80000452:	0800                	addi	s0,sp,16
  initlock(&cons.lock, "cons");
    80000454:	00008597          	auipc	a1,0x8
    80000458:	bbc58593          	addi	a1,a1,-1092 # 80008010 <etext+0x10>
    8000045c:	00010517          	auipc	a0,0x10
    80000460:	5b450513          	addi	a0,a0,1460 # 80010a10 <cons>
    80000464:	00000097          	auipc	ra,0x0
    80000468:	6de080e7          	jalr	1758(ra) # 80000b42 <initlock>

  uartinit();
    8000046c:	00000097          	auipc	ra,0x0
    80000470:	32c080e7          	jalr	812(ra) # 80000798 <uartinit>

  // connect read and write system calls
  // to consoleread and consolewrite.
  devsw[CONSOLE].read = consoleread;
    80000474:	00020797          	auipc	a5,0x20
    80000478:	73478793          	addi	a5,a5,1844 # 80020ba8 <devsw>
    8000047c:	00000717          	auipc	a4,0x0
    80000480:	ce870713          	addi	a4,a4,-792 # 80000164 <consoleread>
    80000484:	eb98                	sd	a4,16(a5)
  devsw[CONSOLE].write = consolewrite;
    80000486:	00000717          	auipc	a4,0x0
    8000048a:	c7a70713          	addi	a4,a4,-902 # 80000100 <consolewrite>
    8000048e:	ef98                	sd	a4,24(a5)
}
    80000490:	60a2                	ld	ra,8(sp)
    80000492:	6402                	ld	s0,0(sp)
    80000494:	0141                	addi	sp,sp,16
    80000496:	8082                	ret

0000000080000498 <printint>:

static char digits[] = "0123456789abcdef";

static void
printint(int xx, int base, int sign)
{
    80000498:	7179                	addi	sp,sp,-48
    8000049a:	f406                	sd	ra,40(sp)
    8000049c:	f022                	sd	s0,32(sp)
    8000049e:	ec26                	sd	s1,24(sp)
    800004a0:	e84a                	sd	s2,16(sp)
    800004a2:	1800                	addi	s0,sp,48
  char buf[16];
  int i;
  uint x;

  if(sign && (sign = xx < 0))
    800004a4:	c219                	beqz	a2,800004aa <printint+0x12>
    800004a6:	08054763          	bltz	a0,80000534 <printint+0x9c>
    x = -xx;
  else
    x = xx;
    800004aa:	2501                	sext.w	a0,a0
    800004ac:	4881                	li	a7,0
    800004ae:	fd040693          	addi	a3,s0,-48

  i = 0;
    800004b2:	4701                	li	a4,0
  do {
    buf[i++] = digits[x % base];
    800004b4:	2581                	sext.w	a1,a1
    800004b6:	00008617          	auipc	a2,0x8
    800004ba:	b8a60613          	addi	a2,a2,-1142 # 80008040 <digits>
    800004be:	883a                	mv	a6,a4
    800004c0:	2705                	addiw	a4,a4,1
    800004c2:	02b577bb          	remuw	a5,a0,a1
    800004c6:	1782                	slli	a5,a5,0x20
    800004c8:	9381                	srli	a5,a5,0x20
    800004ca:	97b2                	add	a5,a5,a2
    800004cc:	0007c783          	lbu	a5,0(a5)
    800004d0:	00f68023          	sb	a5,0(a3)
  } while((x /= base) != 0);
    800004d4:	0005079b          	sext.w	a5,a0
    800004d8:	02b5553b          	divuw	a0,a0,a1
    800004dc:	0685                	addi	a3,a3,1
    800004de:	feb7f0e3          	bgeu	a5,a1,800004be <printint+0x26>

  if(sign)
    800004e2:	00088c63          	beqz	a7,800004fa <printint+0x62>
    buf[i++] = '-';
    800004e6:	fe070793          	addi	a5,a4,-32
    800004ea:	00878733          	add	a4,a5,s0
    800004ee:	02d00793          	li	a5,45
    800004f2:	fef70823          	sb	a5,-16(a4)
    800004f6:	0028071b          	addiw	a4,a6,2

  while(--i >= 0)
    800004fa:	02e05763          	blez	a4,80000528 <printint+0x90>
    800004fe:	fd040793          	addi	a5,s0,-48
    80000502:	00e784b3          	add	s1,a5,a4
    80000506:	fff78913          	addi	s2,a5,-1
    8000050a:	993a                	add	s2,s2,a4
    8000050c:	377d                	addiw	a4,a4,-1
    8000050e:	1702                	slli	a4,a4,0x20
    80000510:	9301                	srli	a4,a4,0x20
    80000512:	40e90933          	sub	s2,s2,a4
    consputc(buf[i]);
    80000516:	fff4c503          	lbu	a0,-1(s1)
    8000051a:	00000097          	auipc	ra,0x0
    8000051e:	d5e080e7          	jalr	-674(ra) # 80000278 <consputc>
  while(--i >= 0)
    80000522:	14fd                	addi	s1,s1,-1
    80000524:	ff2499e3          	bne	s1,s2,80000516 <printint+0x7e>
}
    80000528:	70a2                	ld	ra,40(sp)
    8000052a:	7402                	ld	s0,32(sp)
    8000052c:	64e2                	ld	s1,24(sp)
    8000052e:	6942                	ld	s2,16(sp)
    80000530:	6145                	addi	sp,sp,48
    80000532:	8082                	ret
    x = -xx;
    80000534:	40a0053b          	negw	a0,a0
  if(sign && (sign = xx < 0))
    80000538:	4885                	li	a7,1
    x = -xx;
    8000053a:	bf95                	j	800004ae <printint+0x16>

000000008000053c <panic>:
    release(&pr.lock);
}

void
panic(char *s)
{
    8000053c:	1101                	addi	sp,sp,-32
    8000053e:	ec06                	sd	ra,24(sp)
    80000540:	e822                	sd	s0,16(sp)
    80000542:	e426                	sd	s1,8(sp)
    80000544:	1000                	addi	s0,sp,32
    80000546:	84aa                	mv	s1,a0
  pr.locking = 0;
    80000548:	00010797          	auipc	a5,0x10
    8000054c:	5807a423          	sw	zero,1416(a5) # 80010ad0 <pr+0x18>
  printf("panic: ");
    80000550:	00008517          	auipc	a0,0x8
    80000554:	ac850513          	addi	a0,a0,-1336 # 80008018 <etext+0x18>
    80000558:	00000097          	auipc	ra,0x0
    8000055c:	02e080e7          	jalr	46(ra) # 80000586 <printf>
  printf(s);
    80000560:	8526                	mv	a0,s1
    80000562:	00000097          	auipc	ra,0x0
    80000566:	024080e7          	jalr	36(ra) # 80000586 <printf>
  printf("\n");
    8000056a:	00008517          	auipc	a0,0x8
    8000056e:	b5e50513          	addi	a0,a0,-1186 # 800080c8 <digits+0x88>
    80000572:	00000097          	auipc	ra,0x0
    80000576:	014080e7          	jalr	20(ra) # 80000586 <printf>
  panicked = 1; // freeze uart output from other CPUs
    8000057a:	4785                	li	a5,1
    8000057c:	00008717          	auipc	a4,0x8
    80000580:	30f72a23          	sw	a5,788(a4) # 80008890 <panicked>
  for(;;)
    80000584:	a001                	j	80000584 <panic+0x48>

0000000080000586 <printf>:
{
    80000586:	7131                	addi	sp,sp,-192
    80000588:	fc86                	sd	ra,120(sp)
    8000058a:	f8a2                	sd	s0,112(sp)
    8000058c:	f4a6                	sd	s1,104(sp)
    8000058e:	f0ca                	sd	s2,96(sp)
    80000590:	ecce                	sd	s3,88(sp)
    80000592:	e8d2                	sd	s4,80(sp)
    80000594:	e4d6                	sd	s5,72(sp)
    80000596:	e0da                	sd	s6,64(sp)
    80000598:	fc5e                	sd	s7,56(sp)
    8000059a:	f862                	sd	s8,48(sp)
    8000059c:	f466                	sd	s9,40(sp)
    8000059e:	f06a                	sd	s10,32(sp)
    800005a0:	ec6e                	sd	s11,24(sp)
    800005a2:	0100                	addi	s0,sp,128
    800005a4:	8a2a                	mv	s4,a0
    800005a6:	e40c                	sd	a1,8(s0)
    800005a8:	e810                	sd	a2,16(s0)
    800005aa:	ec14                	sd	a3,24(s0)
    800005ac:	f018                	sd	a4,32(s0)
    800005ae:	f41c                	sd	a5,40(s0)
    800005b0:	03043823          	sd	a6,48(s0)
    800005b4:	03143c23          	sd	a7,56(s0)
  locking = pr.locking;
    800005b8:	00010d97          	auipc	s11,0x10
    800005bc:	518dad83          	lw	s11,1304(s11) # 80010ad0 <pr+0x18>
  if(locking)
    800005c0:	020d9b63          	bnez	s11,800005f6 <printf+0x70>
  if (fmt == 0)
    800005c4:	040a0263          	beqz	s4,80000608 <printf+0x82>
  va_start(ap, fmt);
    800005c8:	00840793          	addi	a5,s0,8
    800005cc:	f8f43423          	sd	a5,-120(s0)
  for(i = 0; (c = fmt[i] & 0xff) != 0; i++){
    800005d0:	000a4503          	lbu	a0,0(s4)
    800005d4:	14050f63          	beqz	a0,80000732 <printf+0x1ac>
    800005d8:	4981                	li	s3,0
    if(c != '%'){
    800005da:	02500a93          	li	s5,37
    switch(c){
    800005de:	07000b93          	li	s7,112
  consputc('x');
    800005e2:	4d41                	li	s10,16
    consputc(digits[x >> (sizeof(uint64) * 8 - 4)]);
    800005e4:	00008b17          	auipc	s6,0x8
    800005e8:	a5cb0b13          	addi	s6,s6,-1444 # 80008040 <digits>
    switch(c){
    800005ec:	07300c93          	li	s9,115
    800005f0:	06400c13          	li	s8,100
    800005f4:	a82d                	j	8000062e <printf+0xa8>
    acquire(&pr.lock);
    800005f6:	00010517          	auipc	a0,0x10
    800005fa:	4c250513          	addi	a0,a0,1218 # 80010ab8 <pr>
    800005fe:	00000097          	auipc	ra,0x0
    80000602:	5d4080e7          	jalr	1492(ra) # 80000bd2 <acquire>
    80000606:	bf7d                	j	800005c4 <printf+0x3e>
    panic("null fmt");
    80000608:	00008517          	auipc	a0,0x8
    8000060c:	a2050513          	addi	a0,a0,-1504 # 80008028 <etext+0x28>
    80000610:	00000097          	auipc	ra,0x0
    80000614:	f2c080e7          	jalr	-212(ra) # 8000053c <panic>
      consputc(c);
    80000618:	00000097          	auipc	ra,0x0
    8000061c:	c60080e7          	jalr	-928(ra) # 80000278 <consputc>
  for(i = 0; (c = fmt[i] & 0xff) != 0; i++){
    80000620:	2985                	addiw	s3,s3,1
    80000622:	013a07b3          	add	a5,s4,s3
    80000626:	0007c503          	lbu	a0,0(a5)
    8000062a:	10050463          	beqz	a0,80000732 <printf+0x1ac>
    if(c != '%'){
    8000062e:	ff5515e3          	bne	a0,s5,80000618 <printf+0x92>
    c = fmt[++i] & 0xff;
    80000632:	2985                	addiw	s3,s3,1
    80000634:	013a07b3          	add	a5,s4,s3
    80000638:	0007c783          	lbu	a5,0(a5)
    8000063c:	0007849b          	sext.w	s1,a5
    if(c == 0)
    80000640:	cbed                	beqz	a5,80000732 <printf+0x1ac>
    switch(c){
    80000642:	05778a63          	beq	a5,s7,80000696 <printf+0x110>
    80000646:	02fbf663          	bgeu	s7,a5,80000672 <printf+0xec>
    8000064a:	09978863          	beq	a5,s9,800006da <printf+0x154>
    8000064e:	07800713          	li	a4,120
    80000652:	0ce79563          	bne	a5,a4,8000071c <printf+0x196>
      printint(va_arg(ap, int), 16, 1);
    80000656:	f8843783          	ld	a5,-120(s0)
    8000065a:	00878713          	addi	a4,a5,8
    8000065e:	f8e43423          	sd	a4,-120(s0)
    80000662:	4605                	li	a2,1
    80000664:	85ea                	mv	a1,s10
    80000666:	4388                	lw	a0,0(a5)
    80000668:	00000097          	auipc	ra,0x0
    8000066c:	e30080e7          	jalr	-464(ra) # 80000498 <printint>
      break;
    80000670:	bf45                	j	80000620 <printf+0x9a>
    switch(c){
    80000672:	09578f63          	beq	a5,s5,80000710 <printf+0x18a>
    80000676:	0b879363          	bne	a5,s8,8000071c <printf+0x196>
      printint(va_arg(ap, int), 10, 1);
    8000067a:	f8843783          	ld	a5,-120(s0)
    8000067e:	00878713          	addi	a4,a5,8
    80000682:	f8e43423          	sd	a4,-120(s0)
    80000686:	4605                	li	a2,1
    80000688:	45a9                	li	a1,10
    8000068a:	4388                	lw	a0,0(a5)
    8000068c:	00000097          	auipc	ra,0x0
    80000690:	e0c080e7          	jalr	-500(ra) # 80000498 <printint>
      break;
    80000694:	b771                	j	80000620 <printf+0x9a>
      printptr(va_arg(ap, uint64));
    80000696:	f8843783          	ld	a5,-120(s0)
    8000069a:	00878713          	addi	a4,a5,8
    8000069e:	f8e43423          	sd	a4,-120(s0)
    800006a2:	0007b903          	ld	s2,0(a5)
  consputc('0');
    800006a6:	03000513          	li	a0,48
    800006aa:	00000097          	auipc	ra,0x0
    800006ae:	bce080e7          	jalr	-1074(ra) # 80000278 <consputc>
  consputc('x');
    800006b2:	07800513          	li	a0,120
    800006b6:	00000097          	auipc	ra,0x0
    800006ba:	bc2080e7          	jalr	-1086(ra) # 80000278 <consputc>
    800006be:	84ea                	mv	s1,s10
    consputc(digits[x >> (sizeof(uint64) * 8 - 4)]);
    800006c0:	03c95793          	srli	a5,s2,0x3c
    800006c4:	97da                	add	a5,a5,s6
    800006c6:	0007c503          	lbu	a0,0(a5)
    800006ca:	00000097          	auipc	ra,0x0
    800006ce:	bae080e7          	jalr	-1106(ra) # 80000278 <consputc>
  for (i = 0; i < (sizeof(uint64) * 2); i++, x <<= 4)
    800006d2:	0912                	slli	s2,s2,0x4
    800006d4:	34fd                	addiw	s1,s1,-1
    800006d6:	f4ed                	bnez	s1,800006c0 <printf+0x13a>
    800006d8:	b7a1                	j	80000620 <printf+0x9a>
      if((s = va_arg(ap, char*)) == 0)
    800006da:	f8843783          	ld	a5,-120(s0)
    800006de:	00878713          	addi	a4,a5,8
    800006e2:	f8e43423          	sd	a4,-120(s0)
    800006e6:	6384                	ld	s1,0(a5)
    800006e8:	cc89                	beqz	s1,80000702 <printf+0x17c>
      for(; *s; s++)
    800006ea:	0004c503          	lbu	a0,0(s1)
    800006ee:	d90d                	beqz	a0,80000620 <printf+0x9a>
        consputc(*s);
    800006f0:	00000097          	auipc	ra,0x0
    800006f4:	b88080e7          	jalr	-1144(ra) # 80000278 <consputc>
      for(; *s; s++)
    800006f8:	0485                	addi	s1,s1,1
    800006fa:	0004c503          	lbu	a0,0(s1)
    800006fe:	f96d                	bnez	a0,800006f0 <printf+0x16a>
    80000700:	b705                	j	80000620 <printf+0x9a>
        s = "(null)";
    80000702:	00008497          	auipc	s1,0x8
    80000706:	91e48493          	addi	s1,s1,-1762 # 80008020 <etext+0x20>
      for(; *s; s++)
    8000070a:	02800513          	li	a0,40
    8000070e:	b7cd                	j	800006f0 <printf+0x16a>
      consputc('%');
    80000710:	8556                	mv	a0,s5
    80000712:	00000097          	auipc	ra,0x0
    80000716:	b66080e7          	jalr	-1178(ra) # 80000278 <consputc>
      break;
    8000071a:	b719                	j	80000620 <printf+0x9a>
      consputc('%');
    8000071c:	8556                	mv	a0,s5
    8000071e:	00000097          	auipc	ra,0x0
    80000722:	b5a080e7          	jalr	-1190(ra) # 80000278 <consputc>
      consputc(c);
    80000726:	8526                	mv	a0,s1
    80000728:	00000097          	auipc	ra,0x0
    8000072c:	b50080e7          	jalr	-1200(ra) # 80000278 <consputc>
      break;
    80000730:	bdc5                	j	80000620 <printf+0x9a>
  if(locking)
    80000732:	020d9163          	bnez	s11,80000754 <printf+0x1ce>
}
    80000736:	70e6                	ld	ra,120(sp)
    80000738:	7446                	ld	s0,112(sp)
    8000073a:	74a6                	ld	s1,104(sp)
    8000073c:	7906                	ld	s2,96(sp)
    8000073e:	69e6                	ld	s3,88(sp)
    80000740:	6a46                	ld	s4,80(sp)
    80000742:	6aa6                	ld	s5,72(sp)
    80000744:	6b06                	ld	s6,64(sp)
    80000746:	7be2                	ld	s7,56(sp)
    80000748:	7c42                	ld	s8,48(sp)
    8000074a:	7ca2                	ld	s9,40(sp)
    8000074c:	7d02                	ld	s10,32(sp)
    8000074e:	6de2                	ld	s11,24(sp)
    80000750:	6129                	addi	sp,sp,192
    80000752:	8082                	ret
    release(&pr.lock);
    80000754:	00010517          	auipc	a0,0x10
    80000758:	36450513          	addi	a0,a0,868 # 80010ab8 <pr>
    8000075c:	00000097          	auipc	ra,0x0
    80000760:	52a080e7          	jalr	1322(ra) # 80000c86 <release>
}
    80000764:	bfc9                	j	80000736 <printf+0x1b0>

0000000080000766 <printfinit>:
    ;
}

void
printfinit(void)
{
    80000766:	1101                	addi	sp,sp,-32
    80000768:	ec06                	sd	ra,24(sp)
    8000076a:	e822                	sd	s0,16(sp)
    8000076c:	e426                	sd	s1,8(sp)
    8000076e:	1000                	addi	s0,sp,32
  initlock(&pr.lock, "pr");
    80000770:	00010497          	auipc	s1,0x10
    80000774:	34848493          	addi	s1,s1,840 # 80010ab8 <pr>
    80000778:	00008597          	auipc	a1,0x8
    8000077c:	8c058593          	addi	a1,a1,-1856 # 80008038 <etext+0x38>
    80000780:	8526                	mv	a0,s1
    80000782:	00000097          	auipc	ra,0x0
    80000786:	3c0080e7          	jalr	960(ra) # 80000b42 <initlock>
  pr.locking = 1;
    8000078a:	4785                	li	a5,1
    8000078c:	cc9c                	sw	a5,24(s1)
}
    8000078e:	60e2                	ld	ra,24(sp)
    80000790:	6442                	ld	s0,16(sp)
    80000792:	64a2                	ld	s1,8(sp)
    80000794:	6105                	addi	sp,sp,32
    80000796:	8082                	ret

0000000080000798 <uartinit>:
    80000798:	1141                	addi	sp,sp,-16
    8000079a:	e406                	sd	ra,8(sp)
    8000079c:	e022                	sd	s0,0(sp)
    8000079e:	0800                	addi	s0,sp,16
    800007a0:	100007b7          	lui	a5,0x10000
    800007a4:	000780a3          	sb	zero,1(a5) # 10000001 <_entry-0x6fffffff>
    800007a8:	f8000713          	li	a4,-128
    800007ac:	00e781a3          	sb	a4,3(a5)
    800007b0:	470d                	li	a4,3
    800007b2:	00e78023          	sb	a4,0(a5)
    800007b6:	000780a3          	sb	zero,1(a5)
    800007ba:	00e781a3          	sb	a4,3(a5)
    800007be:	469d                	li	a3,7
    800007c0:	00d78123          	sb	a3,2(a5)
    800007c4:	00e780a3          	sb	a4,1(a5)
    800007c8:	00008597          	auipc	a1,0x8
    800007cc:	89058593          	addi	a1,a1,-1904 # 80008058 <digits+0x18>
    800007d0:	00010517          	auipc	a0,0x10
    800007d4:	30850513          	addi	a0,a0,776 # 80010ad8 <uart_tx_lock>
    800007d8:	00000097          	auipc	ra,0x0
    800007dc:	36a080e7          	jalr	874(ra) # 80000b42 <initlock>
    800007e0:	60a2                	ld	ra,8(sp)
    800007e2:	6402                	ld	s0,0(sp)
    800007e4:	0141                	addi	sp,sp,16
    800007e6:	8082                	ret

00000000800007e8 <uartputc_sync>:
    800007e8:	1101                	addi	sp,sp,-32
    800007ea:	ec06                	sd	ra,24(sp)
    800007ec:	e822                	sd	s0,16(sp)
    800007ee:	e426                	sd	s1,8(sp)
    800007f0:	1000                	addi	s0,sp,32
    800007f2:	84aa                	mv	s1,a0
    800007f4:	00000097          	auipc	ra,0x0
    800007f8:	392080e7          	jalr	914(ra) # 80000b86 <push_off>
    800007fc:	00008797          	auipc	a5,0x8
    80000800:	0947a783          	lw	a5,148(a5) # 80008890 <panicked>
    80000804:	10000737          	lui	a4,0x10000
    80000808:	c391                	beqz	a5,8000080c <uartputc_sync+0x24>
    8000080a:	a001                	j	8000080a <uartputc_sync+0x22>
    8000080c:	00574783          	lbu	a5,5(a4) # 10000005 <_entry-0x6ffffffb>
    80000810:	0207f793          	andi	a5,a5,32
    80000814:	dfe5                	beqz	a5,8000080c <uartputc_sync+0x24>
    80000816:	0ff4f513          	zext.b	a0,s1
    8000081a:	100007b7          	lui	a5,0x10000
    8000081e:	00a78023          	sb	a0,0(a5) # 10000000 <_entry-0x70000000>
    80000822:	00000097          	auipc	ra,0x0
    80000826:	404080e7          	jalr	1028(ra) # 80000c26 <pop_off>
    8000082a:	60e2                	ld	ra,24(sp)
    8000082c:	6442                	ld	s0,16(sp)
    8000082e:	64a2                	ld	s1,8(sp)
    80000830:	6105                	addi	sp,sp,32
    80000832:	8082                	ret

0000000080000834 <uartstart>:
    80000834:	00008797          	auipc	a5,0x8
    80000838:	0647b783          	ld	a5,100(a5) # 80008898 <uart_tx_r>
    8000083c:	00008717          	auipc	a4,0x8
    80000840:	06473703          	ld	a4,100(a4) # 800088a0 <uart_tx_w>
    80000844:	06f70a63          	beq	a4,a5,800008b8 <uartstart+0x84>
    80000848:	7139                	addi	sp,sp,-64
    8000084a:	fc06                	sd	ra,56(sp)
    8000084c:	f822                	sd	s0,48(sp)
    8000084e:	f426                	sd	s1,40(sp)
    80000850:	f04a                	sd	s2,32(sp)
    80000852:	ec4e                	sd	s3,24(sp)
    80000854:	e852                	sd	s4,16(sp)
    80000856:	e456                	sd	s5,8(sp)
    80000858:	0080                	addi	s0,sp,64
    8000085a:	10000937          	lui	s2,0x10000
    8000085e:	00010a17          	auipc	s4,0x10
    80000862:	27aa0a13          	addi	s4,s4,634 # 80010ad8 <uart_tx_lock>
    80000866:	00008497          	auipc	s1,0x8
    8000086a:	03248493          	addi	s1,s1,50 # 80008898 <uart_tx_r>
    8000086e:	00008997          	auipc	s3,0x8
    80000872:	03298993          	addi	s3,s3,50 # 800088a0 <uart_tx_w>
    80000876:	00594703          	lbu	a4,5(s2) # 10000005 <_entry-0x6ffffffb>
    8000087a:	02077713          	andi	a4,a4,32
    8000087e:	c705                	beqz	a4,800008a6 <uartstart+0x72>
    80000880:	01f7f713          	andi	a4,a5,31
    80000884:	9752                	add	a4,a4,s4
    80000886:	01874a83          	lbu	s5,24(a4)
    8000088a:	0785                	addi	a5,a5,1
    8000088c:	e09c                	sd	a5,0(s1)
    8000088e:	8526                	mv	a0,s1
    80000890:	00002097          	auipc	ra,0x2
    80000894:	822080e7          	jalr	-2014(ra) # 800020b2 <wakeup>
    80000898:	01590023          	sb	s5,0(s2)
    8000089c:	609c                	ld	a5,0(s1)
    8000089e:	0009b703          	ld	a4,0(s3)
    800008a2:	fcf71ae3          	bne	a4,a5,80000876 <uartstart+0x42>
    800008a6:	70e2                	ld	ra,56(sp)
    800008a8:	7442                	ld	s0,48(sp)
    800008aa:	74a2                	ld	s1,40(sp)
    800008ac:	7902                	ld	s2,32(sp)
    800008ae:	69e2                	ld	s3,24(sp)
    800008b0:	6a42                	ld	s4,16(sp)
    800008b2:	6aa2                	ld	s5,8(sp)
    800008b4:	6121                	addi	sp,sp,64
    800008b6:	8082                	ret
    800008b8:	8082                	ret

00000000800008ba <uartputc>:
    800008ba:	7179                	addi	sp,sp,-48
    800008bc:	f406                	sd	ra,40(sp)
    800008be:	f022                	sd	s0,32(sp)
    800008c0:	ec26                	sd	s1,24(sp)
    800008c2:	e84a                	sd	s2,16(sp)
    800008c4:	e44e                	sd	s3,8(sp)
    800008c6:	e052                	sd	s4,0(sp)
    800008c8:	1800                	addi	s0,sp,48
    800008ca:	8a2a                	mv	s4,a0
    800008cc:	00010517          	auipc	a0,0x10
    800008d0:	20c50513          	addi	a0,a0,524 # 80010ad8 <uart_tx_lock>
    800008d4:	00000097          	auipc	ra,0x0
    800008d8:	2fe080e7          	jalr	766(ra) # 80000bd2 <acquire>
    800008dc:	00008797          	auipc	a5,0x8
    800008e0:	fb47a783          	lw	a5,-76(a5) # 80008890 <panicked>
    800008e4:	e7c9                	bnez	a5,8000096e <uartputc+0xb4>
    800008e6:	00008717          	auipc	a4,0x8
    800008ea:	fba73703          	ld	a4,-70(a4) # 800088a0 <uart_tx_w>
    800008ee:	00008797          	auipc	a5,0x8
    800008f2:	faa7b783          	ld	a5,-86(a5) # 80008898 <uart_tx_r>
    800008f6:	02078793          	addi	a5,a5,32
    800008fa:	00010997          	auipc	s3,0x10
    800008fe:	1de98993          	addi	s3,s3,478 # 80010ad8 <uart_tx_lock>
    80000902:	00008497          	auipc	s1,0x8
    80000906:	f9648493          	addi	s1,s1,-106 # 80008898 <uart_tx_r>
    8000090a:	00008917          	auipc	s2,0x8
    8000090e:	f9690913          	addi	s2,s2,-106 # 800088a0 <uart_tx_w>
    80000912:	00e79f63          	bne	a5,a4,80000930 <uartputc+0x76>
    80000916:	85ce                	mv	a1,s3
    80000918:	8526                	mv	a0,s1
    8000091a:	00001097          	auipc	ra,0x1
    8000091e:	734080e7          	jalr	1844(ra) # 8000204e <sleep>
    80000922:	00093703          	ld	a4,0(s2)
    80000926:	609c                	ld	a5,0(s1)
    80000928:	02078793          	addi	a5,a5,32
    8000092c:	fee785e3          	beq	a5,a4,80000916 <uartputc+0x5c>
    80000930:	00010497          	auipc	s1,0x10
    80000934:	1a848493          	addi	s1,s1,424 # 80010ad8 <uart_tx_lock>
    80000938:	01f77793          	andi	a5,a4,31
    8000093c:	97a6                	add	a5,a5,s1
    8000093e:	01478c23          	sb	s4,24(a5)
    80000942:	0705                	addi	a4,a4,1
    80000944:	00008797          	auipc	a5,0x8
    80000948:	f4e7be23          	sd	a4,-164(a5) # 800088a0 <uart_tx_w>
    8000094c:	00000097          	auipc	ra,0x0
    80000950:	ee8080e7          	jalr	-280(ra) # 80000834 <uartstart>
    80000954:	8526                	mv	a0,s1
    80000956:	00000097          	auipc	ra,0x0
    8000095a:	330080e7          	jalr	816(ra) # 80000c86 <release>
    8000095e:	70a2                	ld	ra,40(sp)
    80000960:	7402                	ld	s0,32(sp)
    80000962:	64e2                	ld	s1,24(sp)
    80000964:	6942                	ld	s2,16(sp)
    80000966:	69a2                	ld	s3,8(sp)
    80000968:	6a02                	ld	s4,0(sp)
    8000096a:	6145                	addi	sp,sp,48
    8000096c:	8082                	ret
    8000096e:	a001                	j	8000096e <uartputc+0xb4>

0000000080000970 <uartgetc>:
    80000970:	1141                	addi	sp,sp,-16
    80000972:	e422                	sd	s0,8(sp)
    80000974:	0800                	addi	s0,sp,16
    80000976:	100007b7          	lui	a5,0x10000
    8000097a:	0057c783          	lbu	a5,5(a5) # 10000005 <_entry-0x6ffffffb>
    8000097e:	8b85                	andi	a5,a5,1
    80000980:	cb81                	beqz	a5,80000990 <uartgetc+0x20>
    80000982:	100007b7          	lui	a5,0x10000
    80000986:	0007c503          	lbu	a0,0(a5) # 10000000 <_entry-0x70000000>
    8000098a:	6422                	ld	s0,8(sp)
    8000098c:	0141                	addi	sp,sp,16
    8000098e:	8082                	ret
    80000990:	557d                	li	a0,-1
    80000992:	bfe5                	j	8000098a <uartgetc+0x1a>

0000000080000994 <uartintr>:
    80000994:	1101                	addi	sp,sp,-32
    80000996:	ec06                	sd	ra,24(sp)
    80000998:	e822                	sd	s0,16(sp)
    8000099a:	e426                	sd	s1,8(sp)
    8000099c:	1000                	addi	s0,sp,32
    8000099e:	54fd                	li	s1,-1
    800009a0:	a029                	j	800009aa <uartintr+0x16>
    800009a2:	00000097          	auipc	ra,0x0
    800009a6:	918080e7          	jalr	-1768(ra) # 800002ba <consoleintr>
    800009aa:	00000097          	auipc	ra,0x0
    800009ae:	fc6080e7          	jalr	-58(ra) # 80000970 <uartgetc>
    800009b2:	fe9518e3          	bne	a0,s1,800009a2 <uartintr+0xe>
    800009b6:	00010497          	auipc	s1,0x10
    800009ba:	12248493          	addi	s1,s1,290 # 80010ad8 <uart_tx_lock>
    800009be:	8526                	mv	a0,s1
    800009c0:	00000097          	auipc	ra,0x0
    800009c4:	212080e7          	jalr	530(ra) # 80000bd2 <acquire>
    800009c8:	00000097          	auipc	ra,0x0
    800009cc:	e6c080e7          	jalr	-404(ra) # 80000834 <uartstart>
    800009d0:	8526                	mv	a0,s1
    800009d2:	00000097          	auipc	ra,0x0
    800009d6:	2b4080e7          	jalr	692(ra) # 80000c86 <release>
    800009da:	60e2                	ld	ra,24(sp)
    800009dc:	6442                	ld	s0,16(sp)
    800009de:	64a2                	ld	s1,8(sp)
    800009e0:	6105                	addi	sp,sp,32
    800009e2:	8082                	ret

00000000800009e4 <kfree>:
    800009e4:	1101                	addi	sp,sp,-32
    800009e6:	ec06                	sd	ra,24(sp)
    800009e8:	e822                	sd	s0,16(sp)
    800009ea:	e426                	sd	s1,8(sp)
    800009ec:	e04a                	sd	s2,0(sp)
    800009ee:	1000                	addi	s0,sp,32
    800009f0:	03451793          	slli	a5,a0,0x34
    800009f4:	ebb9                	bnez	a5,80000a4a <kfree+0x66>
    800009f6:	84aa                	mv	s1,a0
    800009f8:	00021797          	auipc	a5,0x21
    800009fc:	34878793          	addi	a5,a5,840 # 80021d40 <end>
    80000a00:	04f56563          	bltu	a0,a5,80000a4a <kfree+0x66>
    80000a04:	47c5                	li	a5,17
    80000a06:	07ee                	slli	a5,a5,0x1b
    80000a08:	04f57163          	bgeu	a0,a5,80000a4a <kfree+0x66>
    80000a0c:	6605                	lui	a2,0x1
    80000a0e:	4585                	li	a1,1
    80000a10:	00000097          	auipc	ra,0x0
    80000a14:	2be080e7          	jalr	702(ra) # 80000cce <memset>
    80000a18:	00010917          	auipc	s2,0x10
    80000a1c:	0f890913          	addi	s2,s2,248 # 80010b10 <kmem>
    80000a20:	854a                	mv	a0,s2
    80000a22:	00000097          	auipc	ra,0x0
    80000a26:	1b0080e7          	jalr	432(ra) # 80000bd2 <acquire>
    80000a2a:	01893783          	ld	a5,24(s2)
    80000a2e:	e09c                	sd	a5,0(s1)
    80000a30:	00993c23          	sd	s1,24(s2)
    80000a34:	854a                	mv	a0,s2
    80000a36:	00000097          	auipc	ra,0x0
    80000a3a:	250080e7          	jalr	592(ra) # 80000c86 <release>
    80000a3e:	60e2                	ld	ra,24(sp)
    80000a40:	6442                	ld	s0,16(sp)
    80000a42:	64a2                	ld	s1,8(sp)
    80000a44:	6902                	ld	s2,0(sp)
    80000a46:	6105                	addi	sp,sp,32
    80000a48:	8082                	ret
    80000a4a:	00007517          	auipc	a0,0x7
    80000a4e:	61650513          	addi	a0,a0,1558 # 80008060 <digits+0x20>
    80000a52:	00000097          	auipc	ra,0x0
    80000a56:	aea080e7          	jalr	-1302(ra) # 8000053c <panic>

0000000080000a5a <freerange>:
    80000a5a:	7179                	addi	sp,sp,-48
    80000a5c:	f406                	sd	ra,40(sp)
    80000a5e:	f022                	sd	s0,32(sp)
    80000a60:	ec26                	sd	s1,24(sp)
    80000a62:	e84a                	sd	s2,16(sp)
    80000a64:	e44e                	sd	s3,8(sp)
    80000a66:	e052                	sd	s4,0(sp)
    80000a68:	1800                	addi	s0,sp,48
    80000a6a:	6785                	lui	a5,0x1
    80000a6c:	fff78713          	addi	a4,a5,-1 # fff <_entry-0x7ffff001>
    80000a70:	00e504b3          	add	s1,a0,a4
    80000a74:	777d                	lui	a4,0xfffff
    80000a76:	8cf9                	and	s1,s1,a4
    80000a78:	94be                	add	s1,s1,a5
    80000a7a:	0095ee63          	bltu	a1,s1,80000a96 <freerange+0x3c>
    80000a7e:	892e                	mv	s2,a1
    80000a80:	7a7d                	lui	s4,0xfffff
    80000a82:	6985                	lui	s3,0x1
    80000a84:	01448533          	add	a0,s1,s4
    80000a88:	00000097          	auipc	ra,0x0
    80000a8c:	f5c080e7          	jalr	-164(ra) # 800009e4 <kfree>
    80000a90:	94ce                	add	s1,s1,s3
    80000a92:	fe9979e3          	bgeu	s2,s1,80000a84 <freerange+0x2a>
    80000a96:	70a2                	ld	ra,40(sp)
    80000a98:	7402                	ld	s0,32(sp)
    80000a9a:	64e2                	ld	s1,24(sp)
    80000a9c:	6942                	ld	s2,16(sp)
    80000a9e:	69a2                	ld	s3,8(sp)
    80000aa0:	6a02                	ld	s4,0(sp)
    80000aa2:	6145                	addi	sp,sp,48
    80000aa4:	8082                	ret

0000000080000aa6 <kinit>:
    80000aa6:	1141                	addi	sp,sp,-16
    80000aa8:	e406                	sd	ra,8(sp)
    80000aaa:	e022                	sd	s0,0(sp)
    80000aac:	0800                	addi	s0,sp,16
    80000aae:	00007597          	auipc	a1,0x7
    80000ab2:	5ba58593          	addi	a1,a1,1466 # 80008068 <digits+0x28>
    80000ab6:	00010517          	auipc	a0,0x10
    80000aba:	05a50513          	addi	a0,a0,90 # 80010b10 <kmem>
    80000abe:	00000097          	auipc	ra,0x0
    80000ac2:	084080e7          	jalr	132(ra) # 80000b42 <initlock>
    80000ac6:	45c5                	li	a1,17
    80000ac8:	05ee                	slli	a1,a1,0x1b
    80000aca:	00021517          	auipc	a0,0x21
    80000ace:	27650513          	addi	a0,a0,630 # 80021d40 <end>
    80000ad2:	00000097          	auipc	ra,0x0
    80000ad6:	f88080e7          	jalr	-120(ra) # 80000a5a <freerange>
    80000ada:	60a2                	ld	ra,8(sp)
    80000adc:	6402                	ld	s0,0(sp)
    80000ade:	0141                	addi	sp,sp,16
    80000ae0:	8082                	ret

0000000080000ae2 <kalloc>:
    80000ae2:	1101                	addi	sp,sp,-32
    80000ae4:	ec06                	sd	ra,24(sp)
    80000ae6:	e822                	sd	s0,16(sp)
    80000ae8:	e426                	sd	s1,8(sp)
    80000aea:	1000                	addi	s0,sp,32
    80000aec:	00010497          	auipc	s1,0x10
    80000af0:	02448493          	addi	s1,s1,36 # 80010b10 <kmem>
    80000af4:	8526                	mv	a0,s1
    80000af6:	00000097          	auipc	ra,0x0
    80000afa:	0dc080e7          	jalr	220(ra) # 80000bd2 <acquire>
    80000afe:	6c84                	ld	s1,24(s1)
    80000b00:	c885                	beqz	s1,80000b30 <kalloc+0x4e>
    80000b02:	609c                	ld	a5,0(s1)
    80000b04:	00010517          	auipc	a0,0x10
    80000b08:	00c50513          	addi	a0,a0,12 # 80010b10 <kmem>
    80000b0c:	ed1c                	sd	a5,24(a0)
    80000b0e:	00000097          	auipc	ra,0x0
    80000b12:	178080e7          	jalr	376(ra) # 80000c86 <release>
    80000b16:	6605                	lui	a2,0x1
    80000b18:	4595                	li	a1,5
    80000b1a:	8526                	mv	a0,s1
    80000b1c:	00000097          	auipc	ra,0x0
    80000b20:	1b2080e7          	jalr	434(ra) # 80000cce <memset>
    80000b24:	8526                	mv	a0,s1
    80000b26:	60e2                	ld	ra,24(sp)
    80000b28:	6442                	ld	s0,16(sp)
    80000b2a:	64a2                	ld	s1,8(sp)
    80000b2c:	6105                	addi	sp,sp,32
    80000b2e:	8082                	ret
    80000b30:	00010517          	auipc	a0,0x10
    80000b34:	fe050513          	addi	a0,a0,-32 # 80010b10 <kmem>
    80000b38:	00000097          	auipc	ra,0x0
    80000b3c:	14e080e7          	jalr	334(ra) # 80000c86 <release>
    80000b40:	b7d5                	j	80000b24 <kalloc+0x42>

0000000080000b42 <initlock>:
    80000b42:	1141                	addi	sp,sp,-16
    80000b44:	e422                	sd	s0,8(sp)
    80000b46:	0800                	addi	s0,sp,16
    80000b48:	e50c                	sd	a1,8(a0)
    80000b4a:	00052023          	sw	zero,0(a0)
    80000b4e:	00053823          	sd	zero,16(a0)
    80000b52:	6422                	ld	s0,8(sp)
    80000b54:	0141                	addi	sp,sp,16
    80000b56:	8082                	ret

0000000080000b58 <holding>:
    80000b58:	411c                	lw	a5,0(a0)
    80000b5a:	e399                	bnez	a5,80000b60 <holding+0x8>
    80000b5c:	4501                	li	a0,0
    80000b5e:	8082                	ret
    80000b60:	1101                	addi	sp,sp,-32
    80000b62:	ec06                	sd	ra,24(sp)
    80000b64:	e822                	sd	s0,16(sp)
    80000b66:	e426                	sd	s1,8(sp)
    80000b68:	1000                	addi	s0,sp,32
    80000b6a:	6904                	ld	s1,16(a0)
    80000b6c:	00001097          	auipc	ra,0x1
    80000b70:	e1e080e7          	jalr	-482(ra) # 8000198a <mycpu>
    80000b74:	40a48533          	sub	a0,s1,a0
    80000b78:	00153513          	seqz	a0,a0
    80000b7c:	60e2                	ld	ra,24(sp)
    80000b7e:	6442                	ld	s0,16(sp)
    80000b80:	64a2                	ld	s1,8(sp)
    80000b82:	6105                	addi	sp,sp,32
    80000b84:	8082                	ret

0000000080000b86 <push_off>:
    80000b86:	1101                	addi	sp,sp,-32
    80000b88:	ec06                	sd	ra,24(sp)
    80000b8a:	e822                	sd	s0,16(sp)
    80000b8c:	e426                	sd	s1,8(sp)
    80000b8e:	1000                	addi	s0,sp,32
    80000b90:	100024f3          	csrr	s1,sstatus
    80000b94:	100027f3          	csrr	a5,sstatus
    80000b98:	9bf5                	andi	a5,a5,-3
    80000b9a:	10079073          	csrw	sstatus,a5
    80000b9e:	00001097          	auipc	ra,0x1
    80000ba2:	dec080e7          	jalr	-532(ra) # 8000198a <mycpu>
    80000ba6:	5d3c                	lw	a5,120(a0)
    80000ba8:	cf89                	beqz	a5,80000bc2 <push_off+0x3c>
    80000baa:	00001097          	auipc	ra,0x1
    80000bae:	de0080e7          	jalr	-544(ra) # 8000198a <mycpu>
    80000bb2:	5d3c                	lw	a5,120(a0)
    80000bb4:	2785                	addiw	a5,a5,1
    80000bb6:	dd3c                	sw	a5,120(a0)
    80000bb8:	60e2                	ld	ra,24(sp)
    80000bba:	6442                	ld	s0,16(sp)
    80000bbc:	64a2                	ld	s1,8(sp)
    80000bbe:	6105                	addi	sp,sp,32
    80000bc0:	8082                	ret
    80000bc2:	00001097          	auipc	ra,0x1
    80000bc6:	dc8080e7          	jalr	-568(ra) # 8000198a <mycpu>
    80000bca:	8085                	srli	s1,s1,0x1
    80000bcc:	8885                	andi	s1,s1,1
    80000bce:	dd64                	sw	s1,124(a0)
    80000bd0:	bfe9                	j	80000baa <push_off+0x24>

0000000080000bd2 <acquire>:
    80000bd2:	1101                	addi	sp,sp,-32
    80000bd4:	ec06                	sd	ra,24(sp)
    80000bd6:	e822                	sd	s0,16(sp)
    80000bd8:	e426                	sd	s1,8(sp)
    80000bda:	1000                	addi	s0,sp,32
    80000bdc:	84aa                	mv	s1,a0
    80000bde:	00000097          	auipc	ra,0x0
    80000be2:	fa8080e7          	jalr	-88(ra) # 80000b86 <push_off>
    80000be6:	8526                	mv	a0,s1
    80000be8:	00000097          	auipc	ra,0x0
    80000bec:	f70080e7          	jalr	-144(ra) # 80000b58 <holding>
    80000bf0:	4705                	li	a4,1
    80000bf2:	e115                	bnez	a0,80000c16 <acquire+0x44>
    80000bf4:	87ba                	mv	a5,a4
    80000bf6:	0cf4a7af          	amoswap.w.aq	a5,a5,(s1)
    80000bfa:	2781                	sext.w	a5,a5
    80000bfc:	ffe5                	bnez	a5,80000bf4 <acquire+0x22>
    80000bfe:	0ff0000f          	fence
    80000c02:	00001097          	auipc	ra,0x1
    80000c06:	d88080e7          	jalr	-632(ra) # 8000198a <mycpu>
    80000c0a:	e888                	sd	a0,16(s1)
    80000c0c:	60e2                	ld	ra,24(sp)
    80000c0e:	6442                	ld	s0,16(sp)
    80000c10:	64a2                	ld	s1,8(sp)
    80000c12:	6105                	addi	sp,sp,32
    80000c14:	8082                	ret
    80000c16:	00007517          	auipc	a0,0x7
    80000c1a:	45a50513          	addi	a0,a0,1114 # 80008070 <digits+0x30>
    80000c1e:	00000097          	auipc	ra,0x0
    80000c22:	91e080e7          	jalr	-1762(ra) # 8000053c <panic>

0000000080000c26 <pop_off>:
    80000c26:	1141                	addi	sp,sp,-16
    80000c28:	e406                	sd	ra,8(sp)
    80000c2a:	e022                	sd	s0,0(sp)
    80000c2c:	0800                	addi	s0,sp,16
    80000c2e:	00001097          	auipc	ra,0x1
    80000c32:	d5c080e7          	jalr	-676(ra) # 8000198a <mycpu>
    80000c36:	100027f3          	csrr	a5,sstatus
    80000c3a:	8b89                	andi	a5,a5,2
    80000c3c:	e78d                	bnez	a5,80000c66 <pop_off+0x40>
    80000c3e:	5d3c                	lw	a5,120(a0)
    80000c40:	02f05b63          	blez	a5,80000c76 <pop_off+0x50>
    80000c44:	37fd                	addiw	a5,a5,-1
    80000c46:	0007871b          	sext.w	a4,a5
    80000c4a:	dd3c                	sw	a5,120(a0)
    80000c4c:	eb09                	bnez	a4,80000c5e <pop_off+0x38>
    80000c4e:	5d7c                	lw	a5,124(a0)
    80000c50:	c799                	beqz	a5,80000c5e <pop_off+0x38>
    80000c52:	100027f3          	csrr	a5,sstatus
    80000c56:	0027e793          	ori	a5,a5,2
    80000c5a:	10079073          	csrw	sstatus,a5
    80000c5e:	60a2                	ld	ra,8(sp)
    80000c60:	6402                	ld	s0,0(sp)
    80000c62:	0141                	addi	sp,sp,16
    80000c64:	8082                	ret
    80000c66:	00007517          	auipc	a0,0x7
    80000c6a:	41250513          	addi	a0,a0,1042 # 80008078 <digits+0x38>
    80000c6e:	00000097          	auipc	ra,0x0
    80000c72:	8ce080e7          	jalr	-1842(ra) # 8000053c <panic>
    80000c76:	00007517          	auipc	a0,0x7
    80000c7a:	41a50513          	addi	a0,a0,1050 # 80008090 <digits+0x50>
    80000c7e:	00000097          	auipc	ra,0x0
    80000c82:	8be080e7          	jalr	-1858(ra) # 8000053c <panic>

0000000080000c86 <release>:
    80000c86:	1101                	addi	sp,sp,-32
    80000c88:	ec06                	sd	ra,24(sp)
    80000c8a:	e822                	sd	s0,16(sp)
    80000c8c:	e426                	sd	s1,8(sp)
    80000c8e:	1000                	addi	s0,sp,32
    80000c90:	84aa                	mv	s1,a0
    80000c92:	00000097          	auipc	ra,0x0
    80000c96:	ec6080e7          	jalr	-314(ra) # 80000b58 <holding>
    80000c9a:	c115                	beqz	a0,80000cbe <release+0x38>
    80000c9c:	0004b823          	sd	zero,16(s1)
    80000ca0:	0ff0000f          	fence
    80000ca4:	0f50000f          	fence	iorw,ow
    80000ca8:	0804a02f          	amoswap.w	zero,zero,(s1)
    80000cac:	00000097          	auipc	ra,0x0
    80000cb0:	f7a080e7          	jalr	-134(ra) # 80000c26 <pop_off>
    80000cb4:	60e2                	ld	ra,24(sp)
    80000cb6:	6442                	ld	s0,16(sp)
    80000cb8:	64a2                	ld	s1,8(sp)
    80000cba:	6105                	addi	sp,sp,32
    80000cbc:	8082                	ret
    80000cbe:	00007517          	auipc	a0,0x7
    80000cc2:	3da50513          	addi	a0,a0,986 # 80008098 <digits+0x58>
    80000cc6:	00000097          	auipc	ra,0x0
    80000cca:	876080e7          	jalr	-1930(ra) # 8000053c <panic>

0000000080000cce <memset>:
    80000cce:	1141                	addi	sp,sp,-16
    80000cd0:	e422                	sd	s0,8(sp)
    80000cd2:	0800                	addi	s0,sp,16
    80000cd4:	ca19                	beqz	a2,80000cea <memset+0x1c>
    80000cd6:	87aa                	mv	a5,a0
    80000cd8:	1602                	slli	a2,a2,0x20
    80000cda:	9201                	srli	a2,a2,0x20
    80000cdc:	00a60733          	add	a4,a2,a0
    80000ce0:	00b78023          	sb	a1,0(a5)
    80000ce4:	0785                	addi	a5,a5,1
    80000ce6:	fee79de3          	bne	a5,a4,80000ce0 <memset+0x12>
    80000cea:	6422                	ld	s0,8(sp)
    80000cec:	0141                	addi	sp,sp,16
    80000cee:	8082                	ret

0000000080000cf0 <memcmp>:
    80000cf0:	1141                	addi	sp,sp,-16
    80000cf2:	e422                	sd	s0,8(sp)
    80000cf4:	0800                	addi	s0,sp,16
    80000cf6:	ca05                	beqz	a2,80000d26 <memcmp+0x36>
    80000cf8:	fff6069b          	addiw	a3,a2,-1 # fff <_entry-0x7ffff001>
    80000cfc:	1682                	slli	a3,a3,0x20
    80000cfe:	9281                	srli	a3,a3,0x20
    80000d00:	0685                	addi	a3,a3,1
    80000d02:	96aa                	add	a3,a3,a0
    80000d04:	00054783          	lbu	a5,0(a0)
    80000d08:	0005c703          	lbu	a4,0(a1)
    80000d0c:	00e79863          	bne	a5,a4,80000d1c <memcmp+0x2c>
    80000d10:	0505                	addi	a0,a0,1
    80000d12:	0585                	addi	a1,a1,1
    80000d14:	fed518e3          	bne	a0,a3,80000d04 <memcmp+0x14>
    80000d18:	4501                	li	a0,0
    80000d1a:	a019                	j	80000d20 <memcmp+0x30>
    80000d1c:	40e7853b          	subw	a0,a5,a4
    80000d20:	6422                	ld	s0,8(sp)
    80000d22:	0141                	addi	sp,sp,16
    80000d24:	8082                	ret
    80000d26:	4501                	li	a0,0
    80000d28:	bfe5                	j	80000d20 <memcmp+0x30>

0000000080000d2a <memmove>:
    80000d2a:	1141                	addi	sp,sp,-16
    80000d2c:	e422                	sd	s0,8(sp)
    80000d2e:	0800                	addi	s0,sp,16
    80000d30:	c205                	beqz	a2,80000d50 <memmove+0x26>
    80000d32:	02a5e263          	bltu	a1,a0,80000d56 <memmove+0x2c>
    80000d36:	1602                	slli	a2,a2,0x20
    80000d38:	9201                	srli	a2,a2,0x20
    80000d3a:	00c587b3          	add	a5,a1,a2
    80000d3e:	872a                	mv	a4,a0
    80000d40:	0585                	addi	a1,a1,1
    80000d42:	0705                	addi	a4,a4,1 # fffffffffffff001 <end+0xffffffff7ffdd2c1>
    80000d44:	fff5c683          	lbu	a3,-1(a1)
    80000d48:	fed70fa3          	sb	a3,-1(a4)
    80000d4c:	fef59ae3          	bne	a1,a5,80000d40 <memmove+0x16>
    80000d50:	6422                	ld	s0,8(sp)
    80000d52:	0141                	addi	sp,sp,16
    80000d54:	8082                	ret
    80000d56:	02061693          	slli	a3,a2,0x20
    80000d5a:	9281                	srli	a3,a3,0x20
    80000d5c:	00d58733          	add	a4,a1,a3
    80000d60:	fce57be3          	bgeu	a0,a4,80000d36 <memmove+0xc>
    80000d64:	96aa                	add	a3,a3,a0
    80000d66:	fff6079b          	addiw	a5,a2,-1
    80000d6a:	1782                	slli	a5,a5,0x20
    80000d6c:	9381                	srli	a5,a5,0x20
    80000d6e:	fff7c793          	not	a5,a5
    80000d72:	97ba                	add	a5,a5,a4
    80000d74:	177d                	addi	a4,a4,-1
    80000d76:	16fd                	addi	a3,a3,-1
    80000d78:	00074603          	lbu	a2,0(a4)
    80000d7c:	00c68023          	sb	a2,0(a3)
    80000d80:	fee79ae3          	bne	a5,a4,80000d74 <memmove+0x4a>
    80000d84:	b7f1                	j	80000d50 <memmove+0x26>

0000000080000d86 <memcpy>:
    80000d86:	1141                	addi	sp,sp,-16
    80000d88:	e406                	sd	ra,8(sp)
    80000d8a:	e022                	sd	s0,0(sp)
    80000d8c:	0800                	addi	s0,sp,16
    80000d8e:	00000097          	auipc	ra,0x0
    80000d92:	f9c080e7          	jalr	-100(ra) # 80000d2a <memmove>
    80000d96:	60a2                	ld	ra,8(sp)
    80000d98:	6402                	ld	s0,0(sp)
    80000d9a:	0141                	addi	sp,sp,16
    80000d9c:	8082                	ret

0000000080000d9e <strncmp>:
    80000d9e:	1141                	addi	sp,sp,-16
    80000da0:	e422                	sd	s0,8(sp)
    80000da2:	0800                	addi	s0,sp,16
    80000da4:	ce11                	beqz	a2,80000dc0 <strncmp+0x22>
    80000da6:	00054783          	lbu	a5,0(a0)
    80000daa:	cf89                	beqz	a5,80000dc4 <strncmp+0x26>
    80000dac:	0005c703          	lbu	a4,0(a1)
    80000db0:	00f71a63          	bne	a4,a5,80000dc4 <strncmp+0x26>
    80000db4:	367d                	addiw	a2,a2,-1
    80000db6:	0505                	addi	a0,a0,1
    80000db8:	0585                	addi	a1,a1,1
    80000dba:	f675                	bnez	a2,80000da6 <strncmp+0x8>
    80000dbc:	4501                	li	a0,0
    80000dbe:	a809                	j	80000dd0 <strncmp+0x32>
    80000dc0:	4501                	li	a0,0
    80000dc2:	a039                	j	80000dd0 <strncmp+0x32>
    80000dc4:	ca09                	beqz	a2,80000dd6 <strncmp+0x38>
    80000dc6:	00054503          	lbu	a0,0(a0)
    80000dca:	0005c783          	lbu	a5,0(a1)
    80000dce:	9d1d                	subw	a0,a0,a5
    80000dd0:	6422                	ld	s0,8(sp)
    80000dd2:	0141                	addi	sp,sp,16
    80000dd4:	8082                	ret
    80000dd6:	4501                	li	a0,0
    80000dd8:	bfe5                	j	80000dd0 <strncmp+0x32>

0000000080000dda <strncpy>:
    80000dda:	1141                	addi	sp,sp,-16
    80000ddc:	e422                	sd	s0,8(sp)
    80000dde:	0800                	addi	s0,sp,16
    80000de0:	87aa                	mv	a5,a0
    80000de2:	86b2                	mv	a3,a2
    80000de4:	367d                	addiw	a2,a2,-1
    80000de6:	00d05963          	blez	a3,80000df8 <strncpy+0x1e>
    80000dea:	0785                	addi	a5,a5,1
    80000dec:	0005c703          	lbu	a4,0(a1)
    80000df0:	fee78fa3          	sb	a4,-1(a5)
    80000df4:	0585                	addi	a1,a1,1
    80000df6:	f775                	bnez	a4,80000de2 <strncpy+0x8>
    80000df8:	873e                	mv	a4,a5
    80000dfa:	9fb5                	addw	a5,a5,a3
    80000dfc:	37fd                	addiw	a5,a5,-1
    80000dfe:	00c05963          	blez	a2,80000e10 <strncpy+0x36>
    80000e02:	0705                	addi	a4,a4,1
    80000e04:	fe070fa3          	sb	zero,-1(a4)
    80000e08:	40e786bb          	subw	a3,a5,a4
    80000e0c:	fed04be3          	bgtz	a3,80000e02 <strncpy+0x28>
    80000e10:	6422                	ld	s0,8(sp)
    80000e12:	0141                	addi	sp,sp,16
    80000e14:	8082                	ret

0000000080000e16 <safestrcpy>:
    80000e16:	1141                	addi	sp,sp,-16
    80000e18:	e422                	sd	s0,8(sp)
    80000e1a:	0800                	addi	s0,sp,16
    80000e1c:	02c05363          	blez	a2,80000e42 <safestrcpy+0x2c>
    80000e20:	fff6069b          	addiw	a3,a2,-1
    80000e24:	1682                	slli	a3,a3,0x20
    80000e26:	9281                	srli	a3,a3,0x20
    80000e28:	96ae                	add	a3,a3,a1
    80000e2a:	87aa                	mv	a5,a0
    80000e2c:	00d58963          	beq	a1,a3,80000e3e <safestrcpy+0x28>
    80000e30:	0585                	addi	a1,a1,1
    80000e32:	0785                	addi	a5,a5,1
    80000e34:	fff5c703          	lbu	a4,-1(a1)
    80000e38:	fee78fa3          	sb	a4,-1(a5)
    80000e3c:	fb65                	bnez	a4,80000e2c <safestrcpy+0x16>
    80000e3e:	00078023          	sb	zero,0(a5)
    80000e42:	6422                	ld	s0,8(sp)
    80000e44:	0141                	addi	sp,sp,16
    80000e46:	8082                	ret

0000000080000e48 <strlen>:
    80000e48:	1141                	addi	sp,sp,-16
    80000e4a:	e422                	sd	s0,8(sp)
    80000e4c:	0800                	addi	s0,sp,16
    80000e4e:	00054783          	lbu	a5,0(a0)
    80000e52:	cf91                	beqz	a5,80000e6e <strlen+0x26>
    80000e54:	0505                	addi	a0,a0,1
    80000e56:	87aa                	mv	a5,a0
    80000e58:	86be                	mv	a3,a5
    80000e5a:	0785                	addi	a5,a5,1
    80000e5c:	fff7c703          	lbu	a4,-1(a5)
    80000e60:	ff65                	bnez	a4,80000e58 <strlen+0x10>
    80000e62:	40a6853b          	subw	a0,a3,a0
    80000e66:	2505                	addiw	a0,a0,1
    80000e68:	6422                	ld	s0,8(sp)
    80000e6a:	0141                	addi	sp,sp,16
    80000e6c:	8082                	ret
    80000e6e:	4501                	li	a0,0
    80000e70:	bfe5                	j	80000e68 <strlen+0x20>

0000000080000e72 <main>:
    80000e72:	1141                	addi	sp,sp,-16
    80000e74:	e406                	sd	ra,8(sp)
    80000e76:	e022                	sd	s0,0(sp)
    80000e78:	0800                	addi	s0,sp,16
    80000e7a:	00001097          	auipc	ra,0x1
    80000e7e:	b00080e7          	jalr	-1280(ra) # 8000197a <cpuid>
    80000e82:	00008717          	auipc	a4,0x8
    80000e86:	a2670713          	addi	a4,a4,-1498 # 800088a8 <started>
    80000e8a:	c139                	beqz	a0,80000ed0 <main+0x5e>
    80000e8c:	431c                	lw	a5,0(a4)
    80000e8e:	2781                	sext.w	a5,a5
    80000e90:	dff5                	beqz	a5,80000e8c <main+0x1a>
    80000e92:	0ff0000f          	fence
    80000e96:	00001097          	auipc	ra,0x1
    80000e9a:	ae4080e7          	jalr	-1308(ra) # 8000197a <cpuid>
    80000e9e:	85aa                	mv	a1,a0
    80000ea0:	00007517          	auipc	a0,0x7
    80000ea4:	21850513          	addi	a0,a0,536 # 800080b8 <digits+0x78>
    80000ea8:	fffff097          	auipc	ra,0xfffff
    80000eac:	6de080e7          	jalr	1758(ra) # 80000586 <printf>
    80000eb0:	00000097          	auipc	ra,0x0
    80000eb4:	0d8080e7          	jalr	216(ra) # 80000f88 <kvminithart>
    80000eb8:	00001097          	auipc	ra,0x1
    80000ebc:	78c080e7          	jalr	1932(ra) # 80002644 <trapinithart>
    80000ec0:	00005097          	auipc	ra,0x5
    80000ec4:	cc0080e7          	jalr	-832(ra) # 80005b80 <plicinithart>
    80000ec8:	00001097          	auipc	ra,0x1
    80000ecc:	fd4080e7          	jalr	-44(ra) # 80001e9c <scheduler>
    80000ed0:	fffff097          	auipc	ra,0xfffff
    80000ed4:	57c080e7          	jalr	1404(ra) # 8000044c <consoleinit>
    80000ed8:	00000097          	auipc	ra,0x0
    80000edc:	88e080e7          	jalr	-1906(ra) # 80000766 <printfinit>
    80000ee0:	00007517          	auipc	a0,0x7
    80000ee4:	1e850513          	addi	a0,a0,488 # 800080c8 <digits+0x88>
    80000ee8:	fffff097          	auipc	ra,0xfffff
    80000eec:	69e080e7          	jalr	1694(ra) # 80000586 <printf>
    80000ef0:	00007517          	auipc	a0,0x7
    80000ef4:	1b050513          	addi	a0,a0,432 # 800080a0 <digits+0x60>
    80000ef8:	fffff097          	auipc	ra,0xfffff
    80000efc:	68e080e7          	jalr	1678(ra) # 80000586 <printf>
    80000f00:	00007517          	auipc	a0,0x7
    80000f04:	1c850513          	addi	a0,a0,456 # 800080c8 <digits+0x88>
    80000f08:	fffff097          	auipc	ra,0xfffff
    80000f0c:	67e080e7          	jalr	1662(ra) # 80000586 <printf>
    80000f10:	00000097          	auipc	ra,0x0
    80000f14:	b96080e7          	jalr	-1130(ra) # 80000aa6 <kinit>
    80000f18:	00000097          	auipc	ra,0x0
    80000f1c:	326080e7          	jalr	806(ra) # 8000123e <kvminit>
    80000f20:	00000097          	auipc	ra,0x0
    80000f24:	068080e7          	jalr	104(ra) # 80000f88 <kvminithart>
    80000f28:	00001097          	auipc	ra,0x1
    80000f2c:	99e080e7          	jalr	-1634(ra) # 800018c6 <procinit>
    80000f30:	00001097          	auipc	ra,0x1
    80000f34:	6ec080e7          	jalr	1772(ra) # 8000261c <trapinit>
    80000f38:	00001097          	auipc	ra,0x1
    80000f3c:	70c080e7          	jalr	1804(ra) # 80002644 <trapinithart>
    80000f40:	00005097          	auipc	ra,0x5
    80000f44:	c2a080e7          	jalr	-982(ra) # 80005b6a <plicinit>
    80000f48:	00005097          	auipc	ra,0x5
    80000f4c:	c38080e7          	jalr	-968(ra) # 80005b80 <plicinithart>
    80000f50:	00002097          	auipc	ra,0x2
    80000f54:	e34080e7          	jalr	-460(ra) # 80002d84 <binit>
    80000f58:	00002097          	auipc	ra,0x2
    80000f5c:	4d2080e7          	jalr	1234(ra) # 8000342a <iinit>
    80000f60:	00003097          	auipc	ra,0x3
    80000f64:	448080e7          	jalr	1096(ra) # 800043a8 <fileinit>
    80000f68:	00005097          	auipc	ra,0x5
    80000f6c:	d20080e7          	jalr	-736(ra) # 80005c88 <virtio_disk_init>
    80000f70:	00001097          	auipc	ra,0x1
    80000f74:	d0e080e7          	jalr	-754(ra) # 80001c7e <userinit>
    80000f78:	0ff0000f          	fence
    80000f7c:	4785                	li	a5,1
    80000f7e:	00008717          	auipc	a4,0x8
    80000f82:	92f72523          	sw	a5,-1750(a4) # 800088a8 <started>
    80000f86:	b789                	j	80000ec8 <main+0x56>

0000000080000f88 <kvminithart>:
    80000f88:	1141                	addi	sp,sp,-16
    80000f8a:	e422                	sd	s0,8(sp)
    80000f8c:	0800                	addi	s0,sp,16
    80000f8e:	12000073          	sfence.vma
    80000f92:	00008797          	auipc	a5,0x8
    80000f96:	91e7b783          	ld	a5,-1762(a5) # 800088b0 <kernel_pagetable>
    80000f9a:	83b1                	srli	a5,a5,0xc
    80000f9c:	577d                	li	a4,-1
    80000f9e:	177e                	slli	a4,a4,0x3f
    80000fa0:	8fd9                	or	a5,a5,a4
    80000fa2:	18079073          	csrw	satp,a5
    80000fa6:	12000073          	sfence.vma
    80000faa:	6422                	ld	s0,8(sp)
    80000fac:	0141                	addi	sp,sp,16
    80000fae:	8082                	ret

0000000080000fb0 <walk>:
    80000fb0:	7139                	addi	sp,sp,-64
    80000fb2:	fc06                	sd	ra,56(sp)
    80000fb4:	f822                	sd	s0,48(sp)
    80000fb6:	f426                	sd	s1,40(sp)
    80000fb8:	f04a                	sd	s2,32(sp)
    80000fba:	ec4e                	sd	s3,24(sp)
    80000fbc:	e852                	sd	s4,16(sp)
    80000fbe:	e456                	sd	s5,8(sp)
    80000fc0:	e05a                	sd	s6,0(sp)
    80000fc2:	0080                	addi	s0,sp,64
    80000fc4:	84aa                	mv	s1,a0
    80000fc6:	89ae                	mv	s3,a1
    80000fc8:	8ab2                	mv	s5,a2
    80000fca:	57fd                	li	a5,-1
    80000fcc:	83e9                	srli	a5,a5,0x1a
    80000fce:	4a79                	li	s4,30
    80000fd0:	4b31                	li	s6,12
    80000fd2:	04b7f263          	bgeu	a5,a1,80001016 <walk+0x66>
    80000fd6:	00007517          	auipc	a0,0x7
    80000fda:	0fa50513          	addi	a0,a0,250 # 800080d0 <digits+0x90>
    80000fde:	fffff097          	auipc	ra,0xfffff
    80000fe2:	55e080e7          	jalr	1374(ra) # 8000053c <panic>
    80000fe6:	060a8663          	beqz	s5,80001052 <walk+0xa2>
    80000fea:	00000097          	auipc	ra,0x0
    80000fee:	af8080e7          	jalr	-1288(ra) # 80000ae2 <kalloc>
    80000ff2:	84aa                	mv	s1,a0
    80000ff4:	c529                	beqz	a0,8000103e <walk+0x8e>
    80000ff6:	6605                	lui	a2,0x1
    80000ff8:	4581                	li	a1,0
    80000ffa:	00000097          	auipc	ra,0x0
    80000ffe:	cd4080e7          	jalr	-812(ra) # 80000cce <memset>
    80001002:	00c4d793          	srli	a5,s1,0xc
    80001006:	07aa                	slli	a5,a5,0xa
    80001008:	0017e793          	ori	a5,a5,1
    8000100c:	00f93023          	sd	a5,0(s2)
    80001010:	3a5d                	addiw	s4,s4,-9 # ffffffffffffeff7 <end+0xffffffff7ffdd2b7>
    80001012:	036a0063          	beq	s4,s6,80001032 <walk+0x82>
    80001016:	0149d933          	srl	s2,s3,s4
    8000101a:	1ff97913          	andi	s2,s2,511
    8000101e:	090e                	slli	s2,s2,0x3
    80001020:	9926                	add	s2,s2,s1
    80001022:	00093483          	ld	s1,0(s2)
    80001026:	0014f793          	andi	a5,s1,1
    8000102a:	dfd5                	beqz	a5,80000fe6 <walk+0x36>
    8000102c:	80a9                	srli	s1,s1,0xa
    8000102e:	04b2                	slli	s1,s1,0xc
    80001030:	b7c5                	j	80001010 <walk+0x60>
    80001032:	00c9d513          	srli	a0,s3,0xc
    80001036:	1ff57513          	andi	a0,a0,511
    8000103a:	050e                	slli	a0,a0,0x3
    8000103c:	9526                	add	a0,a0,s1
    8000103e:	70e2                	ld	ra,56(sp)
    80001040:	7442                	ld	s0,48(sp)
    80001042:	74a2                	ld	s1,40(sp)
    80001044:	7902                	ld	s2,32(sp)
    80001046:	69e2                	ld	s3,24(sp)
    80001048:	6a42                	ld	s4,16(sp)
    8000104a:	6aa2                	ld	s5,8(sp)
    8000104c:	6b02                	ld	s6,0(sp)
    8000104e:	6121                	addi	sp,sp,64
    80001050:	8082                	ret
    80001052:	4501                	li	a0,0
    80001054:	b7ed                	j	8000103e <walk+0x8e>

0000000080001056 <walkaddr>:
    80001056:	57fd                	li	a5,-1
    80001058:	83e9                	srli	a5,a5,0x1a
    8000105a:	00b7f463          	bgeu	a5,a1,80001062 <walkaddr+0xc>
    8000105e:	4501                	li	a0,0
    80001060:	8082                	ret
    80001062:	1141                	addi	sp,sp,-16
    80001064:	e406                	sd	ra,8(sp)
    80001066:	e022                	sd	s0,0(sp)
    80001068:	0800                	addi	s0,sp,16
    8000106a:	4601                	li	a2,0
    8000106c:	00000097          	auipc	ra,0x0
    80001070:	f44080e7          	jalr	-188(ra) # 80000fb0 <walk>
    80001074:	c105                	beqz	a0,80001094 <walkaddr+0x3e>
    80001076:	611c                	ld	a5,0(a0)
    80001078:	0117f693          	andi	a3,a5,17
    8000107c:	4745                	li	a4,17
    8000107e:	4501                	li	a0,0
    80001080:	00e68663          	beq	a3,a4,8000108c <walkaddr+0x36>
    80001084:	60a2                	ld	ra,8(sp)
    80001086:	6402                	ld	s0,0(sp)
    80001088:	0141                	addi	sp,sp,16
    8000108a:	8082                	ret
    8000108c:	83a9                	srli	a5,a5,0xa
    8000108e:	00c79513          	slli	a0,a5,0xc
    80001092:	bfcd                	j	80001084 <walkaddr+0x2e>
    80001094:	4501                	li	a0,0
    80001096:	b7fd                	j	80001084 <walkaddr+0x2e>

0000000080001098 <mappages>:
    80001098:	715d                	addi	sp,sp,-80
    8000109a:	e486                	sd	ra,72(sp)
    8000109c:	e0a2                	sd	s0,64(sp)
    8000109e:	fc26                	sd	s1,56(sp)
    800010a0:	f84a                	sd	s2,48(sp)
    800010a2:	f44e                	sd	s3,40(sp)
    800010a4:	f052                	sd	s4,32(sp)
    800010a6:	ec56                	sd	s5,24(sp)
    800010a8:	e85a                	sd	s6,16(sp)
    800010aa:	e45e                	sd	s7,8(sp)
    800010ac:	0880                	addi	s0,sp,80
    800010ae:	c639                	beqz	a2,800010fc <mappages+0x64>
    800010b0:	8aaa                	mv	s5,a0
    800010b2:	8b3a                	mv	s6,a4
    800010b4:	777d                	lui	a4,0xfffff
    800010b6:	00e5f7b3          	and	a5,a1,a4
    800010ba:	fff58993          	addi	s3,a1,-1
    800010be:	99b2                	add	s3,s3,a2
    800010c0:	00e9f9b3          	and	s3,s3,a4
    800010c4:	893e                	mv	s2,a5
    800010c6:	40f68a33          	sub	s4,a3,a5
    800010ca:	6b85                	lui	s7,0x1
    800010cc:	012a04b3          	add	s1,s4,s2
    800010d0:	4605                	li	a2,1
    800010d2:	85ca                	mv	a1,s2
    800010d4:	8556                	mv	a0,s5
    800010d6:	00000097          	auipc	ra,0x0
    800010da:	eda080e7          	jalr	-294(ra) # 80000fb0 <walk>
    800010de:	cd1d                	beqz	a0,8000111c <mappages+0x84>
    800010e0:	611c                	ld	a5,0(a0)
    800010e2:	8b85                	andi	a5,a5,1
    800010e4:	e785                	bnez	a5,8000110c <mappages+0x74>
    800010e6:	80b1                	srli	s1,s1,0xc
    800010e8:	04aa                	slli	s1,s1,0xa
    800010ea:	0164e4b3          	or	s1,s1,s6
    800010ee:	0014e493          	ori	s1,s1,1
    800010f2:	e104                	sd	s1,0(a0)
    800010f4:	05390063          	beq	s2,s3,80001134 <mappages+0x9c>
    800010f8:	995e                	add	s2,s2,s7
    800010fa:	bfc9                	j	800010cc <mappages+0x34>
    800010fc:	00007517          	auipc	a0,0x7
    80001100:	fdc50513          	addi	a0,a0,-36 # 800080d8 <digits+0x98>
    80001104:	fffff097          	auipc	ra,0xfffff
    80001108:	438080e7          	jalr	1080(ra) # 8000053c <panic>
    8000110c:	00007517          	auipc	a0,0x7
    80001110:	fdc50513          	addi	a0,a0,-36 # 800080e8 <digits+0xa8>
    80001114:	fffff097          	auipc	ra,0xfffff
    80001118:	428080e7          	jalr	1064(ra) # 8000053c <panic>
    8000111c:	557d                	li	a0,-1
    8000111e:	60a6                	ld	ra,72(sp)
    80001120:	6406                	ld	s0,64(sp)
    80001122:	74e2                	ld	s1,56(sp)
    80001124:	7942                	ld	s2,48(sp)
    80001126:	79a2                	ld	s3,40(sp)
    80001128:	7a02                	ld	s4,32(sp)
    8000112a:	6ae2                	ld	s5,24(sp)
    8000112c:	6b42                	ld	s6,16(sp)
    8000112e:	6ba2                	ld	s7,8(sp)
    80001130:	6161                	addi	sp,sp,80
    80001132:	8082                	ret
    80001134:	4501                	li	a0,0
    80001136:	b7e5                	j	8000111e <mappages+0x86>

0000000080001138 <kvmmap>:
    80001138:	1141                	addi	sp,sp,-16
    8000113a:	e406                	sd	ra,8(sp)
    8000113c:	e022                	sd	s0,0(sp)
    8000113e:	0800                	addi	s0,sp,16
    80001140:	87b6                	mv	a5,a3
    80001142:	86b2                	mv	a3,a2
    80001144:	863e                	mv	a2,a5
    80001146:	00000097          	auipc	ra,0x0
    8000114a:	f52080e7          	jalr	-174(ra) # 80001098 <mappages>
    8000114e:	e509                	bnez	a0,80001158 <kvmmap+0x20>
    80001150:	60a2                	ld	ra,8(sp)
    80001152:	6402                	ld	s0,0(sp)
    80001154:	0141                	addi	sp,sp,16
    80001156:	8082                	ret
    80001158:	00007517          	auipc	a0,0x7
    8000115c:	fa050513          	addi	a0,a0,-96 # 800080f8 <digits+0xb8>
    80001160:	fffff097          	auipc	ra,0xfffff
    80001164:	3dc080e7          	jalr	988(ra) # 8000053c <panic>

0000000080001168 <kvmmake>:
    80001168:	1101                	addi	sp,sp,-32
    8000116a:	ec06                	sd	ra,24(sp)
    8000116c:	e822                	sd	s0,16(sp)
    8000116e:	e426                	sd	s1,8(sp)
    80001170:	e04a                	sd	s2,0(sp)
    80001172:	1000                	addi	s0,sp,32
    80001174:	00000097          	auipc	ra,0x0
    80001178:	96e080e7          	jalr	-1682(ra) # 80000ae2 <kalloc>
    8000117c:	84aa                	mv	s1,a0
    8000117e:	6605                	lui	a2,0x1
    80001180:	4581                	li	a1,0
    80001182:	00000097          	auipc	ra,0x0
    80001186:	b4c080e7          	jalr	-1204(ra) # 80000cce <memset>
    8000118a:	4719                	li	a4,6
    8000118c:	6685                	lui	a3,0x1
    8000118e:	10000637          	lui	a2,0x10000
    80001192:	100005b7          	lui	a1,0x10000
    80001196:	8526                	mv	a0,s1
    80001198:	00000097          	auipc	ra,0x0
    8000119c:	fa0080e7          	jalr	-96(ra) # 80001138 <kvmmap>
    800011a0:	4719                	li	a4,6
    800011a2:	6685                	lui	a3,0x1
    800011a4:	10001637          	lui	a2,0x10001
    800011a8:	100015b7          	lui	a1,0x10001
    800011ac:	8526                	mv	a0,s1
    800011ae:	00000097          	auipc	ra,0x0
    800011b2:	f8a080e7          	jalr	-118(ra) # 80001138 <kvmmap>
    800011b6:	4719                	li	a4,6
    800011b8:	004006b7          	lui	a3,0x400
    800011bc:	0c000637          	lui	a2,0xc000
    800011c0:	0c0005b7          	lui	a1,0xc000
    800011c4:	8526                	mv	a0,s1
    800011c6:	00000097          	auipc	ra,0x0
    800011ca:	f72080e7          	jalr	-142(ra) # 80001138 <kvmmap>
    800011ce:	00007917          	auipc	s2,0x7
    800011d2:	e3290913          	addi	s2,s2,-462 # 80008000 <etext>
    800011d6:	4729                	li	a4,10
    800011d8:	80007697          	auipc	a3,0x80007
    800011dc:	e2868693          	addi	a3,a3,-472 # 8000 <_entry-0x7fff8000>
    800011e0:	4605                	li	a2,1
    800011e2:	067e                	slli	a2,a2,0x1f
    800011e4:	85b2                	mv	a1,a2
    800011e6:	8526                	mv	a0,s1
    800011e8:	00000097          	auipc	ra,0x0
    800011ec:	f50080e7          	jalr	-176(ra) # 80001138 <kvmmap>
    800011f0:	4719                	li	a4,6
    800011f2:	46c5                	li	a3,17
    800011f4:	06ee                	slli	a3,a3,0x1b
    800011f6:	412686b3          	sub	a3,a3,s2
    800011fa:	864a                	mv	a2,s2
    800011fc:	85ca                	mv	a1,s2
    800011fe:	8526                	mv	a0,s1
    80001200:	00000097          	auipc	ra,0x0
    80001204:	f38080e7          	jalr	-200(ra) # 80001138 <kvmmap>
    80001208:	4729                	li	a4,10
    8000120a:	6685                	lui	a3,0x1
    8000120c:	00006617          	auipc	a2,0x6
    80001210:	df460613          	addi	a2,a2,-524 # 80007000 <_trampoline>
    80001214:	040005b7          	lui	a1,0x4000
    80001218:	15fd                	addi	a1,a1,-1 # 3ffffff <_entry-0x7c000001>
    8000121a:	05b2                	slli	a1,a1,0xc
    8000121c:	8526                	mv	a0,s1
    8000121e:	00000097          	auipc	ra,0x0
    80001222:	f1a080e7          	jalr	-230(ra) # 80001138 <kvmmap>
    80001226:	8526                	mv	a0,s1
    80001228:	00000097          	auipc	ra,0x0
    8000122c:	608080e7          	jalr	1544(ra) # 80001830 <proc_mapstacks>
    80001230:	8526                	mv	a0,s1
    80001232:	60e2                	ld	ra,24(sp)
    80001234:	6442                	ld	s0,16(sp)
    80001236:	64a2                	ld	s1,8(sp)
    80001238:	6902                	ld	s2,0(sp)
    8000123a:	6105                	addi	sp,sp,32
    8000123c:	8082                	ret

000000008000123e <kvminit>:
    8000123e:	1141                	addi	sp,sp,-16
    80001240:	e406                	sd	ra,8(sp)
    80001242:	e022                	sd	s0,0(sp)
    80001244:	0800                	addi	s0,sp,16
    80001246:	00000097          	auipc	ra,0x0
    8000124a:	f22080e7          	jalr	-222(ra) # 80001168 <kvmmake>
    8000124e:	00007797          	auipc	a5,0x7
    80001252:	66a7b123          	sd	a0,1634(a5) # 800088b0 <kernel_pagetable>
    80001256:	60a2                	ld	ra,8(sp)
    80001258:	6402                	ld	s0,0(sp)
    8000125a:	0141                	addi	sp,sp,16
    8000125c:	8082                	ret

000000008000125e <uvmunmap>:
    8000125e:	715d                	addi	sp,sp,-80
    80001260:	e486                	sd	ra,72(sp)
    80001262:	e0a2                	sd	s0,64(sp)
    80001264:	fc26                	sd	s1,56(sp)
    80001266:	f84a                	sd	s2,48(sp)
    80001268:	f44e                	sd	s3,40(sp)
    8000126a:	f052                	sd	s4,32(sp)
    8000126c:	ec56                	sd	s5,24(sp)
    8000126e:	e85a                	sd	s6,16(sp)
    80001270:	e45e                	sd	s7,8(sp)
    80001272:	0880                	addi	s0,sp,80
    80001274:	03459793          	slli	a5,a1,0x34
    80001278:	e795                	bnez	a5,800012a4 <uvmunmap+0x46>
    8000127a:	8a2a                	mv	s4,a0
    8000127c:	892e                	mv	s2,a1
    8000127e:	8ab6                	mv	s5,a3
    80001280:	0632                	slli	a2,a2,0xc
    80001282:	00b609b3          	add	s3,a2,a1
    80001286:	4b85                	li	s7,1
    80001288:	6b05                	lui	s6,0x1
    8000128a:	0735e263          	bltu	a1,s3,800012ee <uvmunmap+0x90>
    8000128e:	60a6                	ld	ra,72(sp)
    80001290:	6406                	ld	s0,64(sp)
    80001292:	74e2                	ld	s1,56(sp)
    80001294:	7942                	ld	s2,48(sp)
    80001296:	79a2                	ld	s3,40(sp)
    80001298:	7a02                	ld	s4,32(sp)
    8000129a:	6ae2                	ld	s5,24(sp)
    8000129c:	6b42                	ld	s6,16(sp)
    8000129e:	6ba2                	ld	s7,8(sp)
    800012a0:	6161                	addi	sp,sp,80
    800012a2:	8082                	ret
    800012a4:	00007517          	auipc	a0,0x7
    800012a8:	e5c50513          	addi	a0,a0,-420 # 80008100 <digits+0xc0>
    800012ac:	fffff097          	auipc	ra,0xfffff
    800012b0:	290080e7          	jalr	656(ra) # 8000053c <panic>
    800012b4:	00007517          	auipc	a0,0x7
    800012b8:	e6450513          	addi	a0,a0,-412 # 80008118 <digits+0xd8>
    800012bc:	fffff097          	auipc	ra,0xfffff
    800012c0:	280080e7          	jalr	640(ra) # 8000053c <panic>
    800012c4:	00007517          	auipc	a0,0x7
    800012c8:	e6450513          	addi	a0,a0,-412 # 80008128 <digits+0xe8>
    800012cc:	fffff097          	auipc	ra,0xfffff
    800012d0:	270080e7          	jalr	624(ra) # 8000053c <panic>
    800012d4:	00007517          	auipc	a0,0x7
    800012d8:	e6c50513          	addi	a0,a0,-404 # 80008140 <digits+0x100>
    800012dc:	fffff097          	auipc	ra,0xfffff
    800012e0:	260080e7          	jalr	608(ra) # 8000053c <panic>
    800012e4:	0004b023          	sd	zero,0(s1)
    800012e8:	995a                	add	s2,s2,s6
    800012ea:	fb3972e3          	bgeu	s2,s3,8000128e <uvmunmap+0x30>
    800012ee:	4601                	li	a2,0
    800012f0:	85ca                	mv	a1,s2
    800012f2:	8552                	mv	a0,s4
    800012f4:	00000097          	auipc	ra,0x0
    800012f8:	cbc080e7          	jalr	-836(ra) # 80000fb0 <walk>
    800012fc:	84aa                	mv	s1,a0
    800012fe:	d95d                	beqz	a0,800012b4 <uvmunmap+0x56>
    80001300:	6108                	ld	a0,0(a0)
    80001302:	00157793          	andi	a5,a0,1
    80001306:	dfdd                	beqz	a5,800012c4 <uvmunmap+0x66>
    80001308:	3ff57793          	andi	a5,a0,1023
    8000130c:	fd7784e3          	beq	a5,s7,800012d4 <uvmunmap+0x76>
    80001310:	fc0a8ae3          	beqz	s5,800012e4 <uvmunmap+0x86>
    80001314:	8129                	srli	a0,a0,0xa
    80001316:	0532                	slli	a0,a0,0xc
    80001318:	fffff097          	auipc	ra,0xfffff
    8000131c:	6cc080e7          	jalr	1740(ra) # 800009e4 <kfree>
    80001320:	b7d1                	j	800012e4 <uvmunmap+0x86>

0000000080001322 <uvmcreate>:
    80001322:	1101                	addi	sp,sp,-32
    80001324:	ec06                	sd	ra,24(sp)
    80001326:	e822                	sd	s0,16(sp)
    80001328:	e426                	sd	s1,8(sp)
    8000132a:	1000                	addi	s0,sp,32
    8000132c:	fffff097          	auipc	ra,0xfffff
    80001330:	7b6080e7          	jalr	1974(ra) # 80000ae2 <kalloc>
    80001334:	84aa                	mv	s1,a0
    80001336:	c519                	beqz	a0,80001344 <uvmcreate+0x22>
    80001338:	6605                	lui	a2,0x1
    8000133a:	4581                	li	a1,0
    8000133c:	00000097          	auipc	ra,0x0
    80001340:	992080e7          	jalr	-1646(ra) # 80000cce <memset>
    80001344:	8526                	mv	a0,s1
    80001346:	60e2                	ld	ra,24(sp)
    80001348:	6442                	ld	s0,16(sp)
    8000134a:	64a2                	ld	s1,8(sp)
    8000134c:	6105                	addi	sp,sp,32
    8000134e:	8082                	ret

0000000080001350 <uvmfirst>:
    80001350:	7179                	addi	sp,sp,-48
    80001352:	f406                	sd	ra,40(sp)
    80001354:	f022                	sd	s0,32(sp)
    80001356:	ec26                	sd	s1,24(sp)
    80001358:	e84a                	sd	s2,16(sp)
    8000135a:	e44e                	sd	s3,8(sp)
    8000135c:	e052                	sd	s4,0(sp)
    8000135e:	1800                	addi	s0,sp,48
    80001360:	6785                	lui	a5,0x1
    80001362:	04f67863          	bgeu	a2,a5,800013b2 <uvmfirst+0x62>
    80001366:	8a2a                	mv	s4,a0
    80001368:	89ae                	mv	s3,a1
    8000136a:	84b2                	mv	s1,a2
    8000136c:	fffff097          	auipc	ra,0xfffff
    80001370:	776080e7          	jalr	1910(ra) # 80000ae2 <kalloc>
    80001374:	892a                	mv	s2,a0
    80001376:	6605                	lui	a2,0x1
    80001378:	4581                	li	a1,0
    8000137a:	00000097          	auipc	ra,0x0
    8000137e:	954080e7          	jalr	-1708(ra) # 80000cce <memset>
    80001382:	4779                	li	a4,30
    80001384:	86ca                	mv	a3,s2
    80001386:	6605                	lui	a2,0x1
    80001388:	4581                	li	a1,0
    8000138a:	8552                	mv	a0,s4
    8000138c:	00000097          	auipc	ra,0x0
    80001390:	d0c080e7          	jalr	-756(ra) # 80001098 <mappages>
    80001394:	8626                	mv	a2,s1
    80001396:	85ce                	mv	a1,s3
    80001398:	854a                	mv	a0,s2
    8000139a:	00000097          	auipc	ra,0x0
    8000139e:	990080e7          	jalr	-1648(ra) # 80000d2a <memmove>
    800013a2:	70a2                	ld	ra,40(sp)
    800013a4:	7402                	ld	s0,32(sp)
    800013a6:	64e2                	ld	s1,24(sp)
    800013a8:	6942                	ld	s2,16(sp)
    800013aa:	69a2                	ld	s3,8(sp)
    800013ac:	6a02                	ld	s4,0(sp)
    800013ae:	6145                	addi	sp,sp,48
    800013b0:	8082                	ret
    800013b2:	00007517          	auipc	a0,0x7
    800013b6:	da650513          	addi	a0,a0,-602 # 80008158 <digits+0x118>
    800013ba:	fffff097          	auipc	ra,0xfffff
    800013be:	182080e7          	jalr	386(ra) # 8000053c <panic>

00000000800013c2 <uvmdealloc>:
    800013c2:	1101                	addi	sp,sp,-32
    800013c4:	ec06                	sd	ra,24(sp)
    800013c6:	e822                	sd	s0,16(sp)
    800013c8:	e426                	sd	s1,8(sp)
    800013ca:	1000                	addi	s0,sp,32
    800013cc:	84ae                	mv	s1,a1
    800013ce:	00b67d63          	bgeu	a2,a1,800013e8 <uvmdealloc+0x26>
    800013d2:	84b2                	mv	s1,a2
    800013d4:	6785                	lui	a5,0x1
    800013d6:	17fd                	addi	a5,a5,-1 # fff <_entry-0x7ffff001>
    800013d8:	00f60733          	add	a4,a2,a5
    800013dc:	76fd                	lui	a3,0xfffff
    800013de:	8f75                	and	a4,a4,a3
    800013e0:	97ae                	add	a5,a5,a1
    800013e2:	8ff5                	and	a5,a5,a3
    800013e4:	00f76863          	bltu	a4,a5,800013f4 <uvmdealloc+0x32>
    800013e8:	8526                	mv	a0,s1
    800013ea:	60e2                	ld	ra,24(sp)
    800013ec:	6442                	ld	s0,16(sp)
    800013ee:	64a2                	ld	s1,8(sp)
    800013f0:	6105                	addi	sp,sp,32
    800013f2:	8082                	ret
    800013f4:	8f99                	sub	a5,a5,a4
    800013f6:	83b1                	srli	a5,a5,0xc
    800013f8:	4685                	li	a3,1
    800013fa:	0007861b          	sext.w	a2,a5
    800013fe:	85ba                	mv	a1,a4
    80001400:	00000097          	auipc	ra,0x0
    80001404:	e5e080e7          	jalr	-418(ra) # 8000125e <uvmunmap>
    80001408:	b7c5                	j	800013e8 <uvmdealloc+0x26>

000000008000140a <uvmalloc>:
    8000140a:	0ab66563          	bltu	a2,a1,800014b4 <uvmalloc+0xaa>
    8000140e:	7139                	addi	sp,sp,-64
    80001410:	fc06                	sd	ra,56(sp)
    80001412:	f822                	sd	s0,48(sp)
    80001414:	f426                	sd	s1,40(sp)
    80001416:	f04a                	sd	s2,32(sp)
    80001418:	ec4e                	sd	s3,24(sp)
    8000141a:	e852                	sd	s4,16(sp)
    8000141c:	e456                	sd	s5,8(sp)
    8000141e:	e05a                	sd	s6,0(sp)
    80001420:	0080                	addi	s0,sp,64
    80001422:	8aaa                	mv	s5,a0
    80001424:	8a32                	mv	s4,a2
    80001426:	6785                	lui	a5,0x1
    80001428:	17fd                	addi	a5,a5,-1 # fff <_entry-0x7ffff001>
    8000142a:	95be                	add	a1,a1,a5
    8000142c:	77fd                	lui	a5,0xfffff
    8000142e:	00f5f9b3          	and	s3,a1,a5
    80001432:	08c9f363          	bgeu	s3,a2,800014b8 <uvmalloc+0xae>
    80001436:	894e                	mv	s2,s3
    80001438:	0126eb13          	ori	s6,a3,18
    8000143c:	fffff097          	auipc	ra,0xfffff
    80001440:	6a6080e7          	jalr	1702(ra) # 80000ae2 <kalloc>
    80001444:	84aa                	mv	s1,a0
    80001446:	c51d                	beqz	a0,80001474 <uvmalloc+0x6a>
    80001448:	6605                	lui	a2,0x1
    8000144a:	4581                	li	a1,0
    8000144c:	00000097          	auipc	ra,0x0
    80001450:	882080e7          	jalr	-1918(ra) # 80000cce <memset>
    80001454:	875a                	mv	a4,s6
    80001456:	86a6                	mv	a3,s1
    80001458:	6605                	lui	a2,0x1
    8000145a:	85ca                	mv	a1,s2
    8000145c:	8556                	mv	a0,s5
    8000145e:	00000097          	auipc	ra,0x0
    80001462:	c3a080e7          	jalr	-966(ra) # 80001098 <mappages>
    80001466:	e90d                	bnez	a0,80001498 <uvmalloc+0x8e>
    80001468:	6785                	lui	a5,0x1
    8000146a:	993e                	add	s2,s2,a5
    8000146c:	fd4968e3          	bltu	s2,s4,8000143c <uvmalloc+0x32>
    80001470:	8552                	mv	a0,s4
    80001472:	a809                	j	80001484 <uvmalloc+0x7a>
    80001474:	864e                	mv	a2,s3
    80001476:	85ca                	mv	a1,s2
    80001478:	8556                	mv	a0,s5
    8000147a:	00000097          	auipc	ra,0x0
    8000147e:	f48080e7          	jalr	-184(ra) # 800013c2 <uvmdealloc>
    80001482:	4501                	li	a0,0
    80001484:	70e2                	ld	ra,56(sp)
    80001486:	7442                	ld	s0,48(sp)
    80001488:	74a2                	ld	s1,40(sp)
    8000148a:	7902                	ld	s2,32(sp)
    8000148c:	69e2                	ld	s3,24(sp)
    8000148e:	6a42                	ld	s4,16(sp)
    80001490:	6aa2                	ld	s5,8(sp)
    80001492:	6b02                	ld	s6,0(sp)
    80001494:	6121                	addi	sp,sp,64
    80001496:	8082                	ret
    80001498:	8526                	mv	a0,s1
    8000149a:	fffff097          	auipc	ra,0xfffff
    8000149e:	54a080e7          	jalr	1354(ra) # 800009e4 <kfree>
    800014a2:	864e                	mv	a2,s3
    800014a4:	85ca                	mv	a1,s2
    800014a6:	8556                	mv	a0,s5
    800014a8:	00000097          	auipc	ra,0x0
    800014ac:	f1a080e7          	jalr	-230(ra) # 800013c2 <uvmdealloc>
    800014b0:	4501                	li	a0,0
    800014b2:	bfc9                	j	80001484 <uvmalloc+0x7a>
    800014b4:	852e                	mv	a0,a1
    800014b6:	8082                	ret
    800014b8:	8532                	mv	a0,a2
    800014ba:	b7e9                	j	80001484 <uvmalloc+0x7a>

00000000800014bc <freewalk>:
    800014bc:	7179                	addi	sp,sp,-48
    800014be:	f406                	sd	ra,40(sp)
    800014c0:	f022                	sd	s0,32(sp)
    800014c2:	ec26                	sd	s1,24(sp)
    800014c4:	e84a                	sd	s2,16(sp)
    800014c6:	e44e                	sd	s3,8(sp)
    800014c8:	e052                	sd	s4,0(sp)
    800014ca:	1800                	addi	s0,sp,48
    800014cc:	8a2a                	mv	s4,a0
    800014ce:	84aa                	mv	s1,a0
    800014d0:	6905                	lui	s2,0x1
    800014d2:	992a                	add	s2,s2,a0
    800014d4:	4985                	li	s3,1
    800014d6:	a829                	j	800014f0 <freewalk+0x34>
    800014d8:	83a9                	srli	a5,a5,0xa
    800014da:	00c79513          	slli	a0,a5,0xc
    800014de:	00000097          	auipc	ra,0x0
    800014e2:	fde080e7          	jalr	-34(ra) # 800014bc <freewalk>
    800014e6:	0004b023          	sd	zero,0(s1)
    800014ea:	04a1                	addi	s1,s1,8
    800014ec:	03248163          	beq	s1,s2,8000150e <freewalk+0x52>
    800014f0:	609c                	ld	a5,0(s1)
    800014f2:	00f7f713          	andi	a4,a5,15
    800014f6:	ff3701e3          	beq	a4,s3,800014d8 <freewalk+0x1c>
    800014fa:	8b85                	andi	a5,a5,1
    800014fc:	d7fd                	beqz	a5,800014ea <freewalk+0x2e>
    800014fe:	00007517          	auipc	a0,0x7
    80001502:	c7a50513          	addi	a0,a0,-902 # 80008178 <digits+0x138>
    80001506:	fffff097          	auipc	ra,0xfffff
    8000150a:	036080e7          	jalr	54(ra) # 8000053c <panic>
    8000150e:	8552                	mv	a0,s4
    80001510:	fffff097          	auipc	ra,0xfffff
    80001514:	4d4080e7          	jalr	1236(ra) # 800009e4 <kfree>
    80001518:	70a2                	ld	ra,40(sp)
    8000151a:	7402                	ld	s0,32(sp)
    8000151c:	64e2                	ld	s1,24(sp)
    8000151e:	6942                	ld	s2,16(sp)
    80001520:	69a2                	ld	s3,8(sp)
    80001522:	6a02                	ld	s4,0(sp)
    80001524:	6145                	addi	sp,sp,48
    80001526:	8082                	ret

0000000080001528 <uvmfree>:
    80001528:	1101                	addi	sp,sp,-32
    8000152a:	ec06                	sd	ra,24(sp)
    8000152c:	e822                	sd	s0,16(sp)
    8000152e:	e426                	sd	s1,8(sp)
    80001530:	1000                	addi	s0,sp,32
    80001532:	84aa                	mv	s1,a0
    80001534:	e999                	bnez	a1,8000154a <uvmfree+0x22>
    80001536:	8526                	mv	a0,s1
    80001538:	00000097          	auipc	ra,0x0
    8000153c:	f84080e7          	jalr	-124(ra) # 800014bc <freewalk>
    80001540:	60e2                	ld	ra,24(sp)
    80001542:	6442                	ld	s0,16(sp)
    80001544:	64a2                	ld	s1,8(sp)
    80001546:	6105                	addi	sp,sp,32
    80001548:	8082                	ret
    8000154a:	6785                	lui	a5,0x1
    8000154c:	17fd                	addi	a5,a5,-1 # fff <_entry-0x7ffff001>
    8000154e:	95be                	add	a1,a1,a5
    80001550:	4685                	li	a3,1
    80001552:	00c5d613          	srli	a2,a1,0xc
    80001556:	4581                	li	a1,0
    80001558:	00000097          	auipc	ra,0x0
    8000155c:	d06080e7          	jalr	-762(ra) # 8000125e <uvmunmap>
    80001560:	bfd9                	j	80001536 <uvmfree+0xe>

0000000080001562 <uvmcopy>:
    80001562:	c679                	beqz	a2,80001630 <uvmcopy+0xce>
    80001564:	715d                	addi	sp,sp,-80
    80001566:	e486                	sd	ra,72(sp)
    80001568:	e0a2                	sd	s0,64(sp)
    8000156a:	fc26                	sd	s1,56(sp)
    8000156c:	f84a                	sd	s2,48(sp)
    8000156e:	f44e                	sd	s3,40(sp)
    80001570:	f052                	sd	s4,32(sp)
    80001572:	ec56                	sd	s5,24(sp)
    80001574:	e85a                	sd	s6,16(sp)
    80001576:	e45e                	sd	s7,8(sp)
    80001578:	0880                	addi	s0,sp,80
    8000157a:	8b2a                	mv	s6,a0
    8000157c:	8aae                	mv	s5,a1
    8000157e:	8a32                	mv	s4,a2
    80001580:	4981                	li	s3,0
    80001582:	4601                	li	a2,0
    80001584:	85ce                	mv	a1,s3
    80001586:	855a                	mv	a0,s6
    80001588:	00000097          	auipc	ra,0x0
    8000158c:	a28080e7          	jalr	-1496(ra) # 80000fb0 <walk>
    80001590:	c531                	beqz	a0,800015dc <uvmcopy+0x7a>
    80001592:	6118                	ld	a4,0(a0)
    80001594:	00177793          	andi	a5,a4,1
    80001598:	cbb1                	beqz	a5,800015ec <uvmcopy+0x8a>
    8000159a:	00a75593          	srli	a1,a4,0xa
    8000159e:	00c59b93          	slli	s7,a1,0xc
    800015a2:	3ff77493          	andi	s1,a4,1023
    800015a6:	fffff097          	auipc	ra,0xfffff
    800015aa:	53c080e7          	jalr	1340(ra) # 80000ae2 <kalloc>
    800015ae:	892a                	mv	s2,a0
    800015b0:	c939                	beqz	a0,80001606 <uvmcopy+0xa4>
    800015b2:	6605                	lui	a2,0x1
    800015b4:	85de                	mv	a1,s7
    800015b6:	fffff097          	auipc	ra,0xfffff
    800015ba:	774080e7          	jalr	1908(ra) # 80000d2a <memmove>
    800015be:	8726                	mv	a4,s1
    800015c0:	86ca                	mv	a3,s2
    800015c2:	6605                	lui	a2,0x1
    800015c4:	85ce                	mv	a1,s3
    800015c6:	8556                	mv	a0,s5
    800015c8:	00000097          	auipc	ra,0x0
    800015cc:	ad0080e7          	jalr	-1328(ra) # 80001098 <mappages>
    800015d0:	e515                	bnez	a0,800015fc <uvmcopy+0x9a>
    800015d2:	6785                	lui	a5,0x1
    800015d4:	99be                	add	s3,s3,a5
    800015d6:	fb49e6e3          	bltu	s3,s4,80001582 <uvmcopy+0x20>
    800015da:	a081                	j	8000161a <uvmcopy+0xb8>
    800015dc:	00007517          	auipc	a0,0x7
    800015e0:	bac50513          	addi	a0,a0,-1108 # 80008188 <digits+0x148>
    800015e4:	fffff097          	auipc	ra,0xfffff
    800015e8:	f58080e7          	jalr	-168(ra) # 8000053c <panic>
    800015ec:	00007517          	auipc	a0,0x7
    800015f0:	bbc50513          	addi	a0,a0,-1092 # 800081a8 <digits+0x168>
    800015f4:	fffff097          	auipc	ra,0xfffff
    800015f8:	f48080e7          	jalr	-184(ra) # 8000053c <panic>
    800015fc:	854a                	mv	a0,s2
    800015fe:	fffff097          	auipc	ra,0xfffff
    80001602:	3e6080e7          	jalr	998(ra) # 800009e4 <kfree>
    80001606:	4685                	li	a3,1
    80001608:	00c9d613          	srli	a2,s3,0xc
    8000160c:	4581                	li	a1,0
    8000160e:	8556                	mv	a0,s5
    80001610:	00000097          	auipc	ra,0x0
    80001614:	c4e080e7          	jalr	-946(ra) # 8000125e <uvmunmap>
    80001618:	557d                	li	a0,-1
    8000161a:	60a6                	ld	ra,72(sp)
    8000161c:	6406                	ld	s0,64(sp)
    8000161e:	74e2                	ld	s1,56(sp)
    80001620:	7942                	ld	s2,48(sp)
    80001622:	79a2                	ld	s3,40(sp)
    80001624:	7a02                	ld	s4,32(sp)
    80001626:	6ae2                	ld	s5,24(sp)
    80001628:	6b42                	ld	s6,16(sp)
    8000162a:	6ba2                	ld	s7,8(sp)
    8000162c:	6161                	addi	sp,sp,80
    8000162e:	8082                	ret
    80001630:	4501                	li	a0,0
    80001632:	8082                	ret

0000000080001634 <uvmclear>:
    80001634:	1141                	addi	sp,sp,-16
    80001636:	e406                	sd	ra,8(sp)
    80001638:	e022                	sd	s0,0(sp)
    8000163a:	0800                	addi	s0,sp,16
    8000163c:	4601                	li	a2,0
    8000163e:	00000097          	auipc	ra,0x0
    80001642:	972080e7          	jalr	-1678(ra) # 80000fb0 <walk>
    80001646:	c901                	beqz	a0,80001656 <uvmclear+0x22>
    80001648:	611c                	ld	a5,0(a0)
    8000164a:	9bbd                	andi	a5,a5,-17
    8000164c:	e11c                	sd	a5,0(a0)
    8000164e:	60a2                	ld	ra,8(sp)
    80001650:	6402                	ld	s0,0(sp)
    80001652:	0141                	addi	sp,sp,16
    80001654:	8082                	ret
    80001656:	00007517          	auipc	a0,0x7
    8000165a:	b7250513          	addi	a0,a0,-1166 # 800081c8 <digits+0x188>
    8000165e:	fffff097          	auipc	ra,0xfffff
    80001662:	ede080e7          	jalr	-290(ra) # 8000053c <panic>

0000000080001666 <copyout>:
    80001666:	c6bd                	beqz	a3,800016d4 <copyout+0x6e>
    80001668:	715d                	addi	sp,sp,-80
    8000166a:	e486                	sd	ra,72(sp)
    8000166c:	e0a2                	sd	s0,64(sp)
    8000166e:	fc26                	sd	s1,56(sp)
    80001670:	f84a                	sd	s2,48(sp)
    80001672:	f44e                	sd	s3,40(sp)
    80001674:	f052                	sd	s4,32(sp)
    80001676:	ec56                	sd	s5,24(sp)
    80001678:	e85a                	sd	s6,16(sp)
    8000167a:	e45e                	sd	s7,8(sp)
    8000167c:	e062                	sd	s8,0(sp)
    8000167e:	0880                	addi	s0,sp,80
    80001680:	8b2a                	mv	s6,a0
    80001682:	8c2e                	mv	s8,a1
    80001684:	8a32                	mv	s4,a2
    80001686:	89b6                	mv	s3,a3
    80001688:	7bfd                	lui	s7,0xfffff
    8000168a:	6a85                	lui	s5,0x1
    8000168c:	a015                	j	800016b0 <copyout+0x4a>
    8000168e:	9562                	add	a0,a0,s8
    80001690:	0004861b          	sext.w	a2,s1
    80001694:	85d2                	mv	a1,s4
    80001696:	41250533          	sub	a0,a0,s2
    8000169a:	fffff097          	auipc	ra,0xfffff
    8000169e:	690080e7          	jalr	1680(ra) # 80000d2a <memmove>
    800016a2:	409989b3          	sub	s3,s3,s1
    800016a6:	9a26                	add	s4,s4,s1
    800016a8:	01590c33          	add	s8,s2,s5
    800016ac:	02098263          	beqz	s3,800016d0 <copyout+0x6a>
    800016b0:	017c7933          	and	s2,s8,s7
    800016b4:	85ca                	mv	a1,s2
    800016b6:	855a                	mv	a0,s6
    800016b8:	00000097          	auipc	ra,0x0
    800016bc:	99e080e7          	jalr	-1634(ra) # 80001056 <walkaddr>
    800016c0:	cd01                	beqz	a0,800016d8 <copyout+0x72>
    800016c2:	418904b3          	sub	s1,s2,s8
    800016c6:	94d6                	add	s1,s1,s5
    800016c8:	fc99f3e3          	bgeu	s3,s1,8000168e <copyout+0x28>
    800016cc:	84ce                	mv	s1,s3
    800016ce:	b7c1                	j	8000168e <copyout+0x28>
    800016d0:	4501                	li	a0,0
    800016d2:	a021                	j	800016da <copyout+0x74>
    800016d4:	4501                	li	a0,0
    800016d6:	8082                	ret
    800016d8:	557d                	li	a0,-1
    800016da:	60a6                	ld	ra,72(sp)
    800016dc:	6406                	ld	s0,64(sp)
    800016de:	74e2                	ld	s1,56(sp)
    800016e0:	7942                	ld	s2,48(sp)
    800016e2:	79a2                	ld	s3,40(sp)
    800016e4:	7a02                	ld	s4,32(sp)
    800016e6:	6ae2                	ld	s5,24(sp)
    800016e8:	6b42                	ld	s6,16(sp)
    800016ea:	6ba2                	ld	s7,8(sp)
    800016ec:	6c02                	ld	s8,0(sp)
    800016ee:	6161                	addi	sp,sp,80
    800016f0:	8082                	ret

00000000800016f2 <copyin>:
    800016f2:	caa5                	beqz	a3,80001762 <copyin+0x70>
    800016f4:	715d                	addi	sp,sp,-80
    800016f6:	e486                	sd	ra,72(sp)
    800016f8:	e0a2                	sd	s0,64(sp)
    800016fa:	fc26                	sd	s1,56(sp)
    800016fc:	f84a                	sd	s2,48(sp)
    800016fe:	f44e                	sd	s3,40(sp)
    80001700:	f052                	sd	s4,32(sp)
    80001702:	ec56                	sd	s5,24(sp)
    80001704:	e85a                	sd	s6,16(sp)
    80001706:	e45e                	sd	s7,8(sp)
    80001708:	e062                	sd	s8,0(sp)
    8000170a:	0880                	addi	s0,sp,80
    8000170c:	8b2a                	mv	s6,a0
    8000170e:	8a2e                	mv	s4,a1
    80001710:	8c32                	mv	s8,a2
    80001712:	89b6                	mv	s3,a3
    80001714:	7bfd                	lui	s7,0xfffff
    80001716:	6a85                	lui	s5,0x1
    80001718:	a01d                	j	8000173e <copyin+0x4c>
    8000171a:	018505b3          	add	a1,a0,s8
    8000171e:	0004861b          	sext.w	a2,s1
    80001722:	412585b3          	sub	a1,a1,s2
    80001726:	8552                	mv	a0,s4
    80001728:	fffff097          	auipc	ra,0xfffff
    8000172c:	602080e7          	jalr	1538(ra) # 80000d2a <memmove>
    80001730:	409989b3          	sub	s3,s3,s1
    80001734:	9a26                	add	s4,s4,s1
    80001736:	01590c33          	add	s8,s2,s5
    8000173a:	02098263          	beqz	s3,8000175e <copyin+0x6c>
    8000173e:	017c7933          	and	s2,s8,s7
    80001742:	85ca                	mv	a1,s2
    80001744:	855a                	mv	a0,s6
    80001746:	00000097          	auipc	ra,0x0
    8000174a:	910080e7          	jalr	-1776(ra) # 80001056 <walkaddr>
    8000174e:	cd01                	beqz	a0,80001766 <copyin+0x74>
    80001750:	418904b3          	sub	s1,s2,s8
    80001754:	94d6                	add	s1,s1,s5
    80001756:	fc99f2e3          	bgeu	s3,s1,8000171a <copyin+0x28>
    8000175a:	84ce                	mv	s1,s3
    8000175c:	bf7d                	j	8000171a <copyin+0x28>
    8000175e:	4501                	li	a0,0
    80001760:	a021                	j	80001768 <copyin+0x76>
    80001762:	4501                	li	a0,0
    80001764:	8082                	ret
    80001766:	557d                	li	a0,-1
    80001768:	60a6                	ld	ra,72(sp)
    8000176a:	6406                	ld	s0,64(sp)
    8000176c:	74e2                	ld	s1,56(sp)
    8000176e:	7942                	ld	s2,48(sp)
    80001770:	79a2                	ld	s3,40(sp)
    80001772:	7a02                	ld	s4,32(sp)
    80001774:	6ae2                	ld	s5,24(sp)
    80001776:	6b42                	ld	s6,16(sp)
    80001778:	6ba2                	ld	s7,8(sp)
    8000177a:	6c02                	ld	s8,0(sp)
    8000177c:	6161                	addi	sp,sp,80
    8000177e:	8082                	ret

0000000080001780 <copyinstr>:
    80001780:	c2dd                	beqz	a3,80001826 <copyinstr+0xa6>
    80001782:	715d                	addi	sp,sp,-80
    80001784:	e486                	sd	ra,72(sp)
    80001786:	e0a2                	sd	s0,64(sp)
    80001788:	fc26                	sd	s1,56(sp)
    8000178a:	f84a                	sd	s2,48(sp)
    8000178c:	f44e                	sd	s3,40(sp)
    8000178e:	f052                	sd	s4,32(sp)
    80001790:	ec56                	sd	s5,24(sp)
    80001792:	e85a                	sd	s6,16(sp)
    80001794:	e45e                	sd	s7,8(sp)
    80001796:	0880                	addi	s0,sp,80
    80001798:	8a2a                	mv	s4,a0
    8000179a:	8b2e                	mv	s6,a1
    8000179c:	8bb2                	mv	s7,a2
    8000179e:	84b6                	mv	s1,a3
    800017a0:	7afd                	lui	s5,0xfffff
    800017a2:	6985                	lui	s3,0x1
    800017a4:	a02d                	j	800017ce <copyinstr+0x4e>
    800017a6:	00078023          	sb	zero,0(a5) # 1000 <_entry-0x7ffff000>
    800017aa:	4785                	li	a5,1
    800017ac:	37fd                	addiw	a5,a5,-1
    800017ae:	0007851b          	sext.w	a0,a5
    800017b2:	60a6                	ld	ra,72(sp)
    800017b4:	6406                	ld	s0,64(sp)
    800017b6:	74e2                	ld	s1,56(sp)
    800017b8:	7942                	ld	s2,48(sp)
    800017ba:	79a2                	ld	s3,40(sp)
    800017bc:	7a02                	ld	s4,32(sp)
    800017be:	6ae2                	ld	s5,24(sp)
    800017c0:	6b42                	ld	s6,16(sp)
    800017c2:	6ba2                	ld	s7,8(sp)
    800017c4:	6161                	addi	sp,sp,80
    800017c6:	8082                	ret
    800017c8:	01390bb3          	add	s7,s2,s3
    800017cc:	c8a9                	beqz	s1,8000181e <copyinstr+0x9e>
    800017ce:	015bf933          	and	s2,s7,s5
    800017d2:	85ca                	mv	a1,s2
    800017d4:	8552                	mv	a0,s4
    800017d6:	00000097          	auipc	ra,0x0
    800017da:	880080e7          	jalr	-1920(ra) # 80001056 <walkaddr>
    800017de:	c131                	beqz	a0,80001822 <copyinstr+0xa2>
    800017e0:	417906b3          	sub	a3,s2,s7
    800017e4:	96ce                	add	a3,a3,s3
    800017e6:	00d4f363          	bgeu	s1,a3,800017ec <copyinstr+0x6c>
    800017ea:	86a6                	mv	a3,s1
    800017ec:	955e                	add	a0,a0,s7
    800017ee:	41250533          	sub	a0,a0,s2
    800017f2:	daf9                	beqz	a3,800017c8 <copyinstr+0x48>
    800017f4:	87da                	mv	a5,s6
    800017f6:	885a                	mv	a6,s6
    800017f8:	41650633          	sub	a2,a0,s6
    800017fc:	96da                	add	a3,a3,s6
    800017fe:	85be                	mv	a1,a5
    80001800:	00f60733          	add	a4,a2,a5
    80001804:	00074703          	lbu	a4,0(a4) # fffffffffffff000 <end+0xffffffff7ffdd2c0>
    80001808:	df59                	beqz	a4,800017a6 <copyinstr+0x26>
    8000180a:	00e78023          	sb	a4,0(a5)
    8000180e:	0785                	addi	a5,a5,1
    80001810:	fed797e3          	bne	a5,a3,800017fe <copyinstr+0x7e>
    80001814:	14fd                	addi	s1,s1,-1
    80001816:	94c2                	add	s1,s1,a6
    80001818:	8c8d                	sub	s1,s1,a1
    8000181a:	8b3e                	mv	s6,a5
    8000181c:	b775                	j	800017c8 <copyinstr+0x48>
    8000181e:	4781                	li	a5,0
    80001820:	b771                	j	800017ac <copyinstr+0x2c>
    80001822:	557d                	li	a0,-1
    80001824:	b779                	j	800017b2 <copyinstr+0x32>
    80001826:	4781                	li	a5,0
    80001828:	37fd                	addiw	a5,a5,-1
    8000182a:	0007851b          	sext.w	a0,a5
    8000182e:	8082                	ret

0000000080001830 <proc_mapstacks>:
    80001830:	7139                	addi	sp,sp,-64
    80001832:	fc06                	sd	ra,56(sp)
    80001834:	f822                	sd	s0,48(sp)
    80001836:	f426                	sd	s1,40(sp)
    80001838:	f04a                	sd	s2,32(sp)
    8000183a:	ec4e                	sd	s3,24(sp)
    8000183c:	e852                	sd	s4,16(sp)
    8000183e:	e456                	sd	s5,8(sp)
    80001840:	e05a                	sd	s6,0(sp)
    80001842:	0080                	addi	s0,sp,64
    80001844:	89aa                	mv	s3,a0
    80001846:	0000f497          	auipc	s1,0xf
    8000184a:	71a48493          	addi	s1,s1,1818 # 80010f60 <proc>
    8000184e:	8b26                	mv	s6,s1
    80001850:	00006a97          	auipc	s5,0x6
    80001854:	7b0a8a93          	addi	s5,s5,1968 # 80008000 <etext>
    80001858:	04000937          	lui	s2,0x4000
    8000185c:	197d                	addi	s2,s2,-1 # 3ffffff <_entry-0x7c000001>
    8000185e:	0932                	slli	s2,s2,0xc
    80001860:	00015a17          	auipc	s4,0x15
    80001864:	100a0a13          	addi	s4,s4,256 # 80016960 <tickslock>
    80001868:	fffff097          	auipc	ra,0xfffff
    8000186c:	27a080e7          	jalr	634(ra) # 80000ae2 <kalloc>
    80001870:	862a                	mv	a2,a0
    80001872:	c131                	beqz	a0,800018b6 <proc_mapstacks+0x86>
    80001874:	416485b3          	sub	a1,s1,s6
    80001878:	858d                	srai	a1,a1,0x3
    8000187a:	000ab783          	ld	a5,0(s5)
    8000187e:	02f585b3          	mul	a1,a1,a5
    80001882:	2585                	addiw	a1,a1,1
    80001884:	00d5959b          	slliw	a1,a1,0xd
    80001888:	4719                	li	a4,6
    8000188a:	6685                	lui	a3,0x1
    8000188c:	40b905b3          	sub	a1,s2,a1
    80001890:	854e                	mv	a0,s3
    80001892:	00000097          	auipc	ra,0x0
    80001896:	8a6080e7          	jalr	-1882(ra) # 80001138 <kvmmap>
    8000189a:	16848493          	addi	s1,s1,360
    8000189e:	fd4495e3          	bne	s1,s4,80001868 <proc_mapstacks+0x38>
    800018a2:	70e2                	ld	ra,56(sp)
    800018a4:	7442                	ld	s0,48(sp)
    800018a6:	74a2                	ld	s1,40(sp)
    800018a8:	7902                	ld	s2,32(sp)
    800018aa:	69e2                	ld	s3,24(sp)
    800018ac:	6a42                	ld	s4,16(sp)
    800018ae:	6aa2                	ld	s5,8(sp)
    800018b0:	6b02                	ld	s6,0(sp)
    800018b2:	6121                	addi	sp,sp,64
    800018b4:	8082                	ret
    800018b6:	00007517          	auipc	a0,0x7
    800018ba:	92250513          	addi	a0,a0,-1758 # 800081d8 <digits+0x198>
    800018be:	fffff097          	auipc	ra,0xfffff
    800018c2:	c7e080e7          	jalr	-898(ra) # 8000053c <panic>

00000000800018c6 <procinit>:
    800018c6:	7139                	addi	sp,sp,-64
    800018c8:	fc06                	sd	ra,56(sp)
    800018ca:	f822                	sd	s0,48(sp)
    800018cc:	f426                	sd	s1,40(sp)
    800018ce:	f04a                	sd	s2,32(sp)
    800018d0:	ec4e                	sd	s3,24(sp)
    800018d2:	e852                	sd	s4,16(sp)
    800018d4:	e456                	sd	s5,8(sp)
    800018d6:	e05a                	sd	s6,0(sp)
    800018d8:	0080                	addi	s0,sp,64
    800018da:	00007597          	auipc	a1,0x7
    800018de:	90658593          	addi	a1,a1,-1786 # 800081e0 <digits+0x1a0>
    800018e2:	0000f517          	auipc	a0,0xf
    800018e6:	24e50513          	addi	a0,a0,590 # 80010b30 <pid_lock>
    800018ea:	fffff097          	auipc	ra,0xfffff
    800018ee:	258080e7          	jalr	600(ra) # 80000b42 <initlock>
    800018f2:	00007597          	auipc	a1,0x7
    800018f6:	8f658593          	addi	a1,a1,-1802 # 800081e8 <digits+0x1a8>
    800018fa:	0000f517          	auipc	a0,0xf
    800018fe:	24e50513          	addi	a0,a0,590 # 80010b48 <wait_lock>
    80001902:	fffff097          	auipc	ra,0xfffff
    80001906:	240080e7          	jalr	576(ra) # 80000b42 <initlock>
    8000190a:	0000f497          	auipc	s1,0xf
    8000190e:	65648493          	addi	s1,s1,1622 # 80010f60 <proc>
    80001912:	00007b17          	auipc	s6,0x7
    80001916:	8e6b0b13          	addi	s6,s6,-1818 # 800081f8 <digits+0x1b8>
    8000191a:	8aa6                	mv	s5,s1
    8000191c:	00006a17          	auipc	s4,0x6
    80001920:	6e4a0a13          	addi	s4,s4,1764 # 80008000 <etext>
    80001924:	04000937          	lui	s2,0x4000
    80001928:	197d                	addi	s2,s2,-1 # 3ffffff <_entry-0x7c000001>
    8000192a:	0932                	slli	s2,s2,0xc
    8000192c:	00015997          	auipc	s3,0x15
    80001930:	03498993          	addi	s3,s3,52 # 80016960 <tickslock>
    80001934:	85da                	mv	a1,s6
    80001936:	8526                	mv	a0,s1
    80001938:	fffff097          	auipc	ra,0xfffff
    8000193c:	20a080e7          	jalr	522(ra) # 80000b42 <initlock>
    80001940:	0004ac23          	sw	zero,24(s1)
    80001944:	415487b3          	sub	a5,s1,s5
    80001948:	878d                	srai	a5,a5,0x3
    8000194a:	000a3703          	ld	a4,0(s4)
    8000194e:	02e787b3          	mul	a5,a5,a4
    80001952:	2785                	addiw	a5,a5,1
    80001954:	00d7979b          	slliw	a5,a5,0xd
    80001958:	40f907b3          	sub	a5,s2,a5
    8000195c:	e0bc                	sd	a5,64(s1)
    8000195e:	16848493          	addi	s1,s1,360
    80001962:	fd3499e3          	bne	s1,s3,80001934 <procinit+0x6e>
    80001966:	70e2                	ld	ra,56(sp)
    80001968:	7442                	ld	s0,48(sp)
    8000196a:	74a2                	ld	s1,40(sp)
    8000196c:	7902                	ld	s2,32(sp)
    8000196e:	69e2                	ld	s3,24(sp)
    80001970:	6a42                	ld	s4,16(sp)
    80001972:	6aa2                	ld	s5,8(sp)
    80001974:	6b02                	ld	s6,0(sp)
    80001976:	6121                	addi	sp,sp,64
    80001978:	8082                	ret

000000008000197a <cpuid>:
    8000197a:	1141                	addi	sp,sp,-16
    8000197c:	e422                	sd	s0,8(sp)
    8000197e:	0800                	addi	s0,sp,16
    80001980:	8512                	mv	a0,tp
    80001982:	2501                	sext.w	a0,a0
    80001984:	6422                	ld	s0,8(sp)
    80001986:	0141                	addi	sp,sp,16
    80001988:	8082                	ret

000000008000198a <mycpu>:
    8000198a:	1141                	addi	sp,sp,-16
    8000198c:	e422                	sd	s0,8(sp)
    8000198e:	0800                	addi	s0,sp,16
    80001990:	8792                	mv	a5,tp
    80001992:	2781                	sext.w	a5,a5
    80001994:	079e                	slli	a5,a5,0x7
    80001996:	0000f517          	auipc	a0,0xf
    8000199a:	1ca50513          	addi	a0,a0,458 # 80010b60 <cpus>
    8000199e:	953e                	add	a0,a0,a5
    800019a0:	6422                	ld	s0,8(sp)
    800019a2:	0141                	addi	sp,sp,16
    800019a4:	8082                	ret

00000000800019a6 <myproc>:
    800019a6:	1101                	addi	sp,sp,-32
    800019a8:	ec06                	sd	ra,24(sp)
    800019aa:	e822                	sd	s0,16(sp)
    800019ac:	e426                	sd	s1,8(sp)
    800019ae:	1000                	addi	s0,sp,32
    800019b0:	fffff097          	auipc	ra,0xfffff
    800019b4:	1d6080e7          	jalr	470(ra) # 80000b86 <push_off>
    800019b8:	8792                	mv	a5,tp
    800019ba:	2781                	sext.w	a5,a5
    800019bc:	079e                	slli	a5,a5,0x7
    800019be:	0000f717          	auipc	a4,0xf
    800019c2:	17270713          	addi	a4,a4,370 # 80010b30 <pid_lock>
    800019c6:	97ba                	add	a5,a5,a4
    800019c8:	7b84                	ld	s1,48(a5)
    800019ca:	fffff097          	auipc	ra,0xfffff
    800019ce:	25c080e7          	jalr	604(ra) # 80000c26 <pop_off>
    800019d2:	8526                	mv	a0,s1
    800019d4:	60e2                	ld	ra,24(sp)
    800019d6:	6442                	ld	s0,16(sp)
    800019d8:	64a2                	ld	s1,8(sp)
    800019da:	6105                	addi	sp,sp,32
    800019dc:	8082                	ret

00000000800019de <forkret>:
    800019de:	1141                	addi	sp,sp,-16
    800019e0:	e406                	sd	ra,8(sp)
    800019e2:	e022                	sd	s0,0(sp)
    800019e4:	0800                	addi	s0,sp,16
    800019e6:	00000097          	auipc	ra,0x0
    800019ea:	fc0080e7          	jalr	-64(ra) # 800019a6 <myproc>
    800019ee:	fffff097          	auipc	ra,0xfffff
    800019f2:	298080e7          	jalr	664(ra) # 80000c86 <release>
    800019f6:	00007797          	auipc	a5,0x7
    800019fa:	e4a7a783          	lw	a5,-438(a5) # 80008840 <first.1>
    800019fe:	eb89                	bnez	a5,80001a10 <forkret+0x32>
    80001a00:	00001097          	auipc	ra,0x1
    80001a04:	c5c080e7          	jalr	-932(ra) # 8000265c <usertrapret>
    80001a08:	60a2                	ld	ra,8(sp)
    80001a0a:	6402                	ld	s0,0(sp)
    80001a0c:	0141                	addi	sp,sp,16
    80001a0e:	8082                	ret
    80001a10:	00007797          	auipc	a5,0x7
    80001a14:	e207a823          	sw	zero,-464(a5) # 80008840 <first.1>
    80001a18:	4505                	li	a0,1
    80001a1a:	00002097          	auipc	ra,0x2
    80001a1e:	990080e7          	jalr	-1648(ra) # 800033aa <fsinit>
    80001a22:	bff9                	j	80001a00 <forkret+0x22>

0000000080001a24 <allocpid>:
    80001a24:	1101                	addi	sp,sp,-32
    80001a26:	ec06                	sd	ra,24(sp)
    80001a28:	e822                	sd	s0,16(sp)
    80001a2a:	e426                	sd	s1,8(sp)
    80001a2c:	e04a                	sd	s2,0(sp)
    80001a2e:	1000                	addi	s0,sp,32
    80001a30:	0000f917          	auipc	s2,0xf
    80001a34:	10090913          	addi	s2,s2,256 # 80010b30 <pid_lock>
    80001a38:	854a                	mv	a0,s2
    80001a3a:	fffff097          	auipc	ra,0xfffff
    80001a3e:	198080e7          	jalr	408(ra) # 80000bd2 <acquire>
    80001a42:	00007797          	auipc	a5,0x7
    80001a46:	e0278793          	addi	a5,a5,-510 # 80008844 <nextpid>
    80001a4a:	4384                	lw	s1,0(a5)
    80001a4c:	0014871b          	addiw	a4,s1,1
    80001a50:	c398                	sw	a4,0(a5)
    80001a52:	854a                	mv	a0,s2
    80001a54:	fffff097          	auipc	ra,0xfffff
    80001a58:	232080e7          	jalr	562(ra) # 80000c86 <release>
    80001a5c:	8526                	mv	a0,s1
    80001a5e:	60e2                	ld	ra,24(sp)
    80001a60:	6442                	ld	s0,16(sp)
    80001a62:	64a2                	ld	s1,8(sp)
    80001a64:	6902                	ld	s2,0(sp)
    80001a66:	6105                	addi	sp,sp,32
    80001a68:	8082                	ret

0000000080001a6a <proc_pagetable>:
    80001a6a:	1101                	addi	sp,sp,-32
    80001a6c:	ec06                	sd	ra,24(sp)
    80001a6e:	e822                	sd	s0,16(sp)
    80001a70:	e426                	sd	s1,8(sp)
    80001a72:	e04a                	sd	s2,0(sp)
    80001a74:	1000                	addi	s0,sp,32
    80001a76:	892a                	mv	s2,a0
    80001a78:	00000097          	auipc	ra,0x0
    80001a7c:	8aa080e7          	jalr	-1878(ra) # 80001322 <uvmcreate>
    80001a80:	84aa                	mv	s1,a0
    80001a82:	c121                	beqz	a0,80001ac2 <proc_pagetable+0x58>
    80001a84:	4729                	li	a4,10
    80001a86:	00005697          	auipc	a3,0x5
    80001a8a:	57a68693          	addi	a3,a3,1402 # 80007000 <_trampoline>
    80001a8e:	6605                	lui	a2,0x1
    80001a90:	040005b7          	lui	a1,0x4000
    80001a94:	15fd                	addi	a1,a1,-1 # 3ffffff <_entry-0x7c000001>
    80001a96:	05b2                	slli	a1,a1,0xc
    80001a98:	fffff097          	auipc	ra,0xfffff
    80001a9c:	600080e7          	jalr	1536(ra) # 80001098 <mappages>
    80001aa0:	02054863          	bltz	a0,80001ad0 <proc_pagetable+0x66>
    80001aa4:	4719                	li	a4,6
    80001aa6:	05893683          	ld	a3,88(s2)
    80001aaa:	6605                	lui	a2,0x1
    80001aac:	020005b7          	lui	a1,0x2000
    80001ab0:	15fd                	addi	a1,a1,-1 # 1ffffff <_entry-0x7e000001>
    80001ab2:	05b6                	slli	a1,a1,0xd
    80001ab4:	8526                	mv	a0,s1
    80001ab6:	fffff097          	auipc	ra,0xfffff
    80001aba:	5e2080e7          	jalr	1506(ra) # 80001098 <mappages>
    80001abe:	02054163          	bltz	a0,80001ae0 <proc_pagetable+0x76>
    80001ac2:	8526                	mv	a0,s1
    80001ac4:	60e2                	ld	ra,24(sp)
    80001ac6:	6442                	ld	s0,16(sp)
    80001ac8:	64a2                	ld	s1,8(sp)
    80001aca:	6902                	ld	s2,0(sp)
    80001acc:	6105                	addi	sp,sp,32
    80001ace:	8082                	ret
    80001ad0:	4581                	li	a1,0
    80001ad2:	8526                	mv	a0,s1
    80001ad4:	00000097          	auipc	ra,0x0
    80001ad8:	a54080e7          	jalr	-1452(ra) # 80001528 <uvmfree>
    80001adc:	4481                	li	s1,0
    80001ade:	b7d5                	j	80001ac2 <proc_pagetable+0x58>
    80001ae0:	4681                	li	a3,0
    80001ae2:	4605                	li	a2,1
    80001ae4:	040005b7          	lui	a1,0x4000
    80001ae8:	15fd                	addi	a1,a1,-1 # 3ffffff <_entry-0x7c000001>
    80001aea:	05b2                	slli	a1,a1,0xc
    80001aec:	8526                	mv	a0,s1
    80001aee:	fffff097          	auipc	ra,0xfffff
    80001af2:	770080e7          	jalr	1904(ra) # 8000125e <uvmunmap>
    80001af6:	4581                	li	a1,0
    80001af8:	8526                	mv	a0,s1
    80001afa:	00000097          	auipc	ra,0x0
    80001afe:	a2e080e7          	jalr	-1490(ra) # 80001528 <uvmfree>
    80001b02:	4481                	li	s1,0
    80001b04:	bf7d                	j	80001ac2 <proc_pagetable+0x58>

0000000080001b06 <proc_freepagetable>:
    80001b06:	1101                	addi	sp,sp,-32
    80001b08:	ec06                	sd	ra,24(sp)
    80001b0a:	e822                	sd	s0,16(sp)
    80001b0c:	e426                	sd	s1,8(sp)
    80001b0e:	e04a                	sd	s2,0(sp)
    80001b10:	1000                	addi	s0,sp,32
    80001b12:	84aa                	mv	s1,a0
    80001b14:	892e                	mv	s2,a1
    80001b16:	4681                	li	a3,0
    80001b18:	4605                	li	a2,1
    80001b1a:	040005b7          	lui	a1,0x4000
    80001b1e:	15fd                	addi	a1,a1,-1 # 3ffffff <_entry-0x7c000001>
    80001b20:	05b2                	slli	a1,a1,0xc
    80001b22:	fffff097          	auipc	ra,0xfffff
    80001b26:	73c080e7          	jalr	1852(ra) # 8000125e <uvmunmap>
    80001b2a:	4681                	li	a3,0
    80001b2c:	4605                	li	a2,1
    80001b2e:	020005b7          	lui	a1,0x2000
    80001b32:	15fd                	addi	a1,a1,-1 # 1ffffff <_entry-0x7e000001>
    80001b34:	05b6                	slli	a1,a1,0xd
    80001b36:	8526                	mv	a0,s1
    80001b38:	fffff097          	auipc	ra,0xfffff
    80001b3c:	726080e7          	jalr	1830(ra) # 8000125e <uvmunmap>
    80001b40:	85ca                	mv	a1,s2
    80001b42:	8526                	mv	a0,s1
    80001b44:	00000097          	auipc	ra,0x0
    80001b48:	9e4080e7          	jalr	-1564(ra) # 80001528 <uvmfree>
    80001b4c:	60e2                	ld	ra,24(sp)
    80001b4e:	6442                	ld	s0,16(sp)
    80001b50:	64a2                	ld	s1,8(sp)
    80001b52:	6902                	ld	s2,0(sp)
    80001b54:	6105                	addi	sp,sp,32
    80001b56:	8082                	ret

0000000080001b58 <freeproc>:
    80001b58:	1101                	addi	sp,sp,-32
    80001b5a:	ec06                	sd	ra,24(sp)
    80001b5c:	e822                	sd	s0,16(sp)
    80001b5e:	e426                	sd	s1,8(sp)
    80001b60:	1000                	addi	s0,sp,32
    80001b62:	84aa                	mv	s1,a0
    80001b64:	6d28                	ld	a0,88(a0)
    80001b66:	c509                	beqz	a0,80001b70 <freeproc+0x18>
    80001b68:	fffff097          	auipc	ra,0xfffff
    80001b6c:	e7c080e7          	jalr	-388(ra) # 800009e4 <kfree>
    80001b70:	0404bc23          	sd	zero,88(s1)
    80001b74:	68a8                	ld	a0,80(s1)
    80001b76:	c511                	beqz	a0,80001b82 <freeproc+0x2a>
    80001b78:	64ac                	ld	a1,72(s1)
    80001b7a:	00000097          	auipc	ra,0x0
    80001b7e:	f8c080e7          	jalr	-116(ra) # 80001b06 <proc_freepagetable>
    80001b82:	0404b823          	sd	zero,80(s1)
    80001b86:	0404b423          	sd	zero,72(s1)
    80001b8a:	0204a823          	sw	zero,48(s1)
    80001b8e:	0204bc23          	sd	zero,56(s1)
    80001b92:	14048c23          	sb	zero,344(s1)
    80001b96:	0204b023          	sd	zero,32(s1)
    80001b9a:	0204a423          	sw	zero,40(s1)
    80001b9e:	0204a623          	sw	zero,44(s1)
    80001ba2:	0004ac23          	sw	zero,24(s1)
    80001ba6:	60e2                	ld	ra,24(sp)
    80001ba8:	6442                	ld	s0,16(sp)
    80001baa:	64a2                	ld	s1,8(sp)
    80001bac:	6105                	addi	sp,sp,32
    80001bae:	8082                	ret

0000000080001bb0 <allocproc>:
    80001bb0:	1101                	addi	sp,sp,-32
    80001bb2:	ec06                	sd	ra,24(sp)
    80001bb4:	e822                	sd	s0,16(sp)
    80001bb6:	e426                	sd	s1,8(sp)
    80001bb8:	e04a                	sd	s2,0(sp)
    80001bba:	1000                	addi	s0,sp,32
    80001bbc:	0000f497          	auipc	s1,0xf
    80001bc0:	3a448493          	addi	s1,s1,932 # 80010f60 <proc>
    80001bc4:	00015917          	auipc	s2,0x15
    80001bc8:	d9c90913          	addi	s2,s2,-612 # 80016960 <tickslock>
    80001bcc:	8526                	mv	a0,s1
    80001bce:	fffff097          	auipc	ra,0xfffff
    80001bd2:	004080e7          	jalr	4(ra) # 80000bd2 <acquire>
    80001bd6:	4c9c                	lw	a5,24(s1)
    80001bd8:	cf81                	beqz	a5,80001bf0 <allocproc+0x40>
    80001bda:	8526                	mv	a0,s1
    80001bdc:	fffff097          	auipc	ra,0xfffff
    80001be0:	0aa080e7          	jalr	170(ra) # 80000c86 <release>
    80001be4:	16848493          	addi	s1,s1,360
    80001be8:	ff2492e3          	bne	s1,s2,80001bcc <allocproc+0x1c>
    80001bec:	4481                	li	s1,0
    80001bee:	a889                	j	80001c40 <allocproc+0x90>
    80001bf0:	00000097          	auipc	ra,0x0
    80001bf4:	e34080e7          	jalr	-460(ra) # 80001a24 <allocpid>
    80001bf8:	d888                	sw	a0,48(s1)
    80001bfa:	4785                	li	a5,1
    80001bfc:	cc9c                	sw	a5,24(s1)
    80001bfe:	fffff097          	auipc	ra,0xfffff
    80001c02:	ee4080e7          	jalr	-284(ra) # 80000ae2 <kalloc>
    80001c06:	892a                	mv	s2,a0
    80001c08:	eca8                	sd	a0,88(s1)
    80001c0a:	c131                	beqz	a0,80001c4e <allocproc+0x9e>
    80001c0c:	8526                	mv	a0,s1
    80001c0e:	00000097          	auipc	ra,0x0
    80001c12:	e5c080e7          	jalr	-420(ra) # 80001a6a <proc_pagetable>
    80001c16:	892a                	mv	s2,a0
    80001c18:	e8a8                	sd	a0,80(s1)
    80001c1a:	c531                	beqz	a0,80001c66 <allocproc+0xb6>
    80001c1c:	07000613          	li	a2,112
    80001c20:	4581                	li	a1,0
    80001c22:	06048513          	addi	a0,s1,96
    80001c26:	fffff097          	auipc	ra,0xfffff
    80001c2a:	0a8080e7          	jalr	168(ra) # 80000cce <memset>
    80001c2e:	00000797          	auipc	a5,0x0
    80001c32:	db078793          	addi	a5,a5,-592 # 800019de <forkret>
    80001c36:	f0bc                	sd	a5,96(s1)
    80001c38:	60bc                	ld	a5,64(s1)
    80001c3a:	6705                	lui	a4,0x1
    80001c3c:	97ba                	add	a5,a5,a4
    80001c3e:	f4bc                	sd	a5,104(s1)
    80001c40:	8526                	mv	a0,s1
    80001c42:	60e2                	ld	ra,24(sp)
    80001c44:	6442                	ld	s0,16(sp)
    80001c46:	64a2                	ld	s1,8(sp)
    80001c48:	6902                	ld	s2,0(sp)
    80001c4a:	6105                	addi	sp,sp,32
    80001c4c:	8082                	ret
    80001c4e:	8526                	mv	a0,s1
    80001c50:	00000097          	auipc	ra,0x0
    80001c54:	f08080e7          	jalr	-248(ra) # 80001b58 <freeproc>
    80001c58:	8526                	mv	a0,s1
    80001c5a:	fffff097          	auipc	ra,0xfffff
    80001c5e:	02c080e7          	jalr	44(ra) # 80000c86 <release>
    80001c62:	84ca                	mv	s1,s2
    80001c64:	bff1                	j	80001c40 <allocproc+0x90>
    80001c66:	8526                	mv	a0,s1
    80001c68:	00000097          	auipc	ra,0x0
    80001c6c:	ef0080e7          	jalr	-272(ra) # 80001b58 <freeproc>
    80001c70:	8526                	mv	a0,s1
    80001c72:	fffff097          	auipc	ra,0xfffff
    80001c76:	014080e7          	jalr	20(ra) # 80000c86 <release>
    80001c7a:	84ca                	mv	s1,s2
    80001c7c:	b7d1                	j	80001c40 <allocproc+0x90>

0000000080001c7e <userinit>:
    80001c7e:	1101                	addi	sp,sp,-32
    80001c80:	ec06                	sd	ra,24(sp)
    80001c82:	e822                	sd	s0,16(sp)
    80001c84:	e426                	sd	s1,8(sp)
    80001c86:	1000                	addi	s0,sp,32
    80001c88:	00000097          	auipc	ra,0x0
    80001c8c:	f28080e7          	jalr	-216(ra) # 80001bb0 <allocproc>
    80001c90:	84aa                	mv	s1,a0
    80001c92:	00007797          	auipc	a5,0x7
    80001c96:	c2a7b323          	sd	a0,-986(a5) # 800088b8 <initproc>
    80001c9a:	03400613          	li	a2,52
    80001c9e:	00007597          	auipc	a1,0x7
    80001ca2:	bb258593          	addi	a1,a1,-1102 # 80008850 <initcode>
    80001ca6:	6928                	ld	a0,80(a0)
    80001ca8:	fffff097          	auipc	ra,0xfffff
    80001cac:	6a8080e7          	jalr	1704(ra) # 80001350 <uvmfirst>
    80001cb0:	6785                	lui	a5,0x1
    80001cb2:	e4bc                	sd	a5,72(s1)
    80001cb4:	6cb8                	ld	a4,88(s1)
    80001cb6:	00073c23          	sd	zero,24(a4) # 1018 <_entry-0x7fffefe8>
    80001cba:	6cb8                	ld	a4,88(s1)
    80001cbc:	fb1c                	sd	a5,48(a4)
    80001cbe:	4641                	li	a2,16
    80001cc0:	00006597          	auipc	a1,0x6
    80001cc4:	54058593          	addi	a1,a1,1344 # 80008200 <digits+0x1c0>
    80001cc8:	15848513          	addi	a0,s1,344
    80001ccc:	fffff097          	auipc	ra,0xfffff
    80001cd0:	14a080e7          	jalr	330(ra) # 80000e16 <safestrcpy>
    80001cd4:	00006517          	auipc	a0,0x6
    80001cd8:	53c50513          	addi	a0,a0,1340 # 80008210 <digits+0x1d0>
    80001cdc:	00002097          	auipc	ra,0x2
    80001ce0:	0ec080e7          	jalr	236(ra) # 80003dc8 <namei>
    80001ce4:	14a4b823          	sd	a0,336(s1)
    80001ce8:	478d                	li	a5,3
    80001cea:	cc9c                	sw	a5,24(s1)
    80001cec:	8526                	mv	a0,s1
    80001cee:	fffff097          	auipc	ra,0xfffff
    80001cf2:	f98080e7          	jalr	-104(ra) # 80000c86 <release>
    80001cf6:	60e2                	ld	ra,24(sp)
    80001cf8:	6442                	ld	s0,16(sp)
    80001cfa:	64a2                	ld	s1,8(sp)
    80001cfc:	6105                	addi	sp,sp,32
    80001cfe:	8082                	ret

0000000080001d00 <growproc>:
    80001d00:	1101                	addi	sp,sp,-32
    80001d02:	ec06                	sd	ra,24(sp)
    80001d04:	e822                	sd	s0,16(sp)
    80001d06:	e426                	sd	s1,8(sp)
    80001d08:	e04a                	sd	s2,0(sp)
    80001d0a:	1000                	addi	s0,sp,32
    80001d0c:	892a                	mv	s2,a0
    80001d0e:	00000097          	auipc	ra,0x0
    80001d12:	c98080e7          	jalr	-872(ra) # 800019a6 <myproc>
    80001d16:	84aa                	mv	s1,a0
    80001d18:	652c                	ld	a1,72(a0)
    80001d1a:	01204c63          	bgtz	s2,80001d32 <growproc+0x32>
    80001d1e:	02094663          	bltz	s2,80001d4a <growproc+0x4a>
    80001d22:	e4ac                	sd	a1,72(s1)
    80001d24:	4501                	li	a0,0
    80001d26:	60e2                	ld	ra,24(sp)
    80001d28:	6442                	ld	s0,16(sp)
    80001d2a:	64a2                	ld	s1,8(sp)
    80001d2c:	6902                	ld	s2,0(sp)
    80001d2e:	6105                	addi	sp,sp,32
    80001d30:	8082                	ret
    80001d32:	4691                	li	a3,4
    80001d34:	00b90633          	add	a2,s2,a1
    80001d38:	6928                	ld	a0,80(a0)
    80001d3a:	fffff097          	auipc	ra,0xfffff
    80001d3e:	6d0080e7          	jalr	1744(ra) # 8000140a <uvmalloc>
    80001d42:	85aa                	mv	a1,a0
    80001d44:	fd79                	bnez	a0,80001d22 <growproc+0x22>
    80001d46:	557d                	li	a0,-1
    80001d48:	bff9                	j	80001d26 <growproc+0x26>
    80001d4a:	00b90633          	add	a2,s2,a1
    80001d4e:	6928                	ld	a0,80(a0)
    80001d50:	fffff097          	auipc	ra,0xfffff
    80001d54:	672080e7          	jalr	1650(ra) # 800013c2 <uvmdealloc>
    80001d58:	85aa                	mv	a1,a0
    80001d5a:	b7e1                	j	80001d22 <growproc+0x22>

0000000080001d5c <fork>:
    80001d5c:	7139                	addi	sp,sp,-64
    80001d5e:	fc06                	sd	ra,56(sp)
    80001d60:	f822                	sd	s0,48(sp)
    80001d62:	f426                	sd	s1,40(sp)
    80001d64:	f04a                	sd	s2,32(sp)
    80001d66:	ec4e                	sd	s3,24(sp)
    80001d68:	e852                	sd	s4,16(sp)
    80001d6a:	e456                	sd	s5,8(sp)
    80001d6c:	0080                	addi	s0,sp,64
    80001d6e:	00000097          	auipc	ra,0x0
    80001d72:	c38080e7          	jalr	-968(ra) # 800019a6 <myproc>
    80001d76:	8aaa                	mv	s5,a0
    80001d78:	00000097          	auipc	ra,0x0
    80001d7c:	e38080e7          	jalr	-456(ra) # 80001bb0 <allocproc>
    80001d80:	10050c63          	beqz	a0,80001e98 <fork+0x13c>
    80001d84:	8a2a                	mv	s4,a0
    80001d86:	048ab603          	ld	a2,72(s5)
    80001d8a:	692c                	ld	a1,80(a0)
    80001d8c:	050ab503          	ld	a0,80(s5)
    80001d90:	fffff097          	auipc	ra,0xfffff
    80001d94:	7d2080e7          	jalr	2002(ra) # 80001562 <uvmcopy>
    80001d98:	04054863          	bltz	a0,80001de8 <fork+0x8c>
    80001d9c:	048ab783          	ld	a5,72(s5)
    80001da0:	04fa3423          	sd	a5,72(s4)
    80001da4:	058ab683          	ld	a3,88(s5)
    80001da8:	87b6                	mv	a5,a3
    80001daa:	058a3703          	ld	a4,88(s4)
    80001dae:	12068693          	addi	a3,a3,288
    80001db2:	0007b803          	ld	a6,0(a5) # 1000 <_entry-0x7ffff000>
    80001db6:	6788                	ld	a0,8(a5)
    80001db8:	6b8c                	ld	a1,16(a5)
    80001dba:	6f90                	ld	a2,24(a5)
    80001dbc:	01073023          	sd	a6,0(a4)
    80001dc0:	e708                	sd	a0,8(a4)
    80001dc2:	eb0c                	sd	a1,16(a4)
    80001dc4:	ef10                	sd	a2,24(a4)
    80001dc6:	02078793          	addi	a5,a5,32
    80001dca:	02070713          	addi	a4,a4,32
    80001dce:	fed792e3          	bne	a5,a3,80001db2 <fork+0x56>
    80001dd2:	058a3783          	ld	a5,88(s4)
    80001dd6:	0607b823          	sd	zero,112(a5)
    80001dda:	0d0a8493          	addi	s1,s5,208
    80001dde:	0d0a0913          	addi	s2,s4,208
    80001de2:	150a8993          	addi	s3,s5,336
    80001de6:	a00d                	j	80001e08 <fork+0xac>
    80001de8:	8552                	mv	a0,s4
    80001dea:	00000097          	auipc	ra,0x0
    80001dee:	d6e080e7          	jalr	-658(ra) # 80001b58 <freeproc>
    80001df2:	8552                	mv	a0,s4
    80001df4:	fffff097          	auipc	ra,0xfffff
    80001df8:	e92080e7          	jalr	-366(ra) # 80000c86 <release>
    80001dfc:	597d                	li	s2,-1
    80001dfe:	a059                	j	80001e84 <fork+0x128>
    80001e00:	04a1                	addi	s1,s1,8
    80001e02:	0921                	addi	s2,s2,8
    80001e04:	01348b63          	beq	s1,s3,80001e1a <fork+0xbe>
    80001e08:	6088                	ld	a0,0(s1)
    80001e0a:	d97d                	beqz	a0,80001e00 <fork+0xa4>
    80001e0c:	00002097          	auipc	ra,0x2
    80001e10:	62e080e7          	jalr	1582(ra) # 8000443a <filedup>
    80001e14:	00a93023          	sd	a0,0(s2)
    80001e18:	b7e5                	j	80001e00 <fork+0xa4>
    80001e1a:	150ab503          	ld	a0,336(s5)
    80001e1e:	00001097          	auipc	ra,0x1
    80001e22:	7c6080e7          	jalr	1990(ra) # 800035e4 <idup>
    80001e26:	14aa3823          	sd	a0,336(s4)
    80001e2a:	4641                	li	a2,16
    80001e2c:	158a8593          	addi	a1,s5,344
    80001e30:	158a0513          	addi	a0,s4,344
    80001e34:	fffff097          	auipc	ra,0xfffff
    80001e38:	fe2080e7          	jalr	-30(ra) # 80000e16 <safestrcpy>
    80001e3c:	030a2903          	lw	s2,48(s4)
    80001e40:	8552                	mv	a0,s4
    80001e42:	fffff097          	auipc	ra,0xfffff
    80001e46:	e44080e7          	jalr	-444(ra) # 80000c86 <release>
    80001e4a:	0000f497          	auipc	s1,0xf
    80001e4e:	cfe48493          	addi	s1,s1,-770 # 80010b48 <wait_lock>
    80001e52:	8526                	mv	a0,s1
    80001e54:	fffff097          	auipc	ra,0xfffff
    80001e58:	d7e080e7          	jalr	-642(ra) # 80000bd2 <acquire>
    80001e5c:	035a3c23          	sd	s5,56(s4)
    80001e60:	8526                	mv	a0,s1
    80001e62:	fffff097          	auipc	ra,0xfffff
    80001e66:	e24080e7          	jalr	-476(ra) # 80000c86 <release>
    80001e6a:	8552                	mv	a0,s4
    80001e6c:	fffff097          	auipc	ra,0xfffff
    80001e70:	d66080e7          	jalr	-666(ra) # 80000bd2 <acquire>
    80001e74:	478d                	li	a5,3
    80001e76:	00fa2c23          	sw	a5,24(s4)
    80001e7a:	8552                	mv	a0,s4
    80001e7c:	fffff097          	auipc	ra,0xfffff
    80001e80:	e0a080e7          	jalr	-502(ra) # 80000c86 <release>
    80001e84:	854a                	mv	a0,s2
    80001e86:	70e2                	ld	ra,56(sp)
    80001e88:	7442                	ld	s0,48(sp)
    80001e8a:	74a2                	ld	s1,40(sp)
    80001e8c:	7902                	ld	s2,32(sp)
    80001e8e:	69e2                	ld	s3,24(sp)
    80001e90:	6a42                	ld	s4,16(sp)
    80001e92:	6aa2                	ld	s5,8(sp)
    80001e94:	6121                	addi	sp,sp,64
    80001e96:	8082                	ret
    80001e98:	597d                	li	s2,-1
    80001e9a:	b7ed                	j	80001e84 <fork+0x128>

0000000080001e9c <scheduler>:
    80001e9c:	7139                	addi	sp,sp,-64
    80001e9e:	fc06                	sd	ra,56(sp)
    80001ea0:	f822                	sd	s0,48(sp)
    80001ea2:	f426                	sd	s1,40(sp)
    80001ea4:	f04a                	sd	s2,32(sp)
    80001ea6:	ec4e                	sd	s3,24(sp)
    80001ea8:	e852                	sd	s4,16(sp)
    80001eaa:	e456                	sd	s5,8(sp)
    80001eac:	e05a                	sd	s6,0(sp)
    80001eae:	0080                	addi	s0,sp,64
    80001eb0:	8792                	mv	a5,tp
    80001eb2:	2781                	sext.w	a5,a5
    80001eb4:	00779a93          	slli	s5,a5,0x7
    80001eb8:	0000f717          	auipc	a4,0xf
    80001ebc:	c7870713          	addi	a4,a4,-904 # 80010b30 <pid_lock>
    80001ec0:	9756                	add	a4,a4,s5
    80001ec2:	02073823          	sd	zero,48(a4)
    80001ec6:	0000f717          	auipc	a4,0xf
    80001eca:	ca270713          	addi	a4,a4,-862 # 80010b68 <cpus+0x8>
    80001ece:	9aba                	add	s5,s5,a4
    80001ed0:	498d                	li	s3,3
    80001ed2:	4b11                	li	s6,4
    80001ed4:	079e                	slli	a5,a5,0x7
    80001ed6:	0000fa17          	auipc	s4,0xf
    80001eda:	c5aa0a13          	addi	s4,s4,-934 # 80010b30 <pid_lock>
    80001ede:	9a3e                	add	s4,s4,a5
    80001ee0:	00015917          	auipc	s2,0x15
    80001ee4:	a8090913          	addi	s2,s2,-1408 # 80016960 <tickslock>
    80001ee8:	100027f3          	csrr	a5,sstatus
    80001eec:	0027e793          	ori	a5,a5,2
    80001ef0:	10079073          	csrw	sstatus,a5
    80001ef4:	0000f497          	auipc	s1,0xf
    80001ef8:	06c48493          	addi	s1,s1,108 # 80010f60 <proc>
    80001efc:	a811                	j	80001f10 <scheduler+0x74>
    80001efe:	8526                	mv	a0,s1
    80001f00:	fffff097          	auipc	ra,0xfffff
    80001f04:	d86080e7          	jalr	-634(ra) # 80000c86 <release>
    80001f08:	16848493          	addi	s1,s1,360
    80001f0c:	fd248ee3          	beq	s1,s2,80001ee8 <scheduler+0x4c>
    80001f10:	8526                	mv	a0,s1
    80001f12:	fffff097          	auipc	ra,0xfffff
    80001f16:	cc0080e7          	jalr	-832(ra) # 80000bd2 <acquire>
    80001f1a:	4c9c                	lw	a5,24(s1)
    80001f1c:	ff3791e3          	bne	a5,s3,80001efe <scheduler+0x62>
    80001f20:	0164ac23          	sw	s6,24(s1)
    80001f24:	029a3823          	sd	s1,48(s4)
    80001f28:	06048593          	addi	a1,s1,96
    80001f2c:	8556                	mv	a0,s5
    80001f2e:	00000097          	auipc	ra,0x0
    80001f32:	684080e7          	jalr	1668(ra) # 800025b2 <swtch>
    80001f36:	020a3823          	sd	zero,48(s4)
    80001f3a:	b7d1                	j	80001efe <scheduler+0x62>

0000000080001f3c <sched>:
    80001f3c:	7179                	addi	sp,sp,-48
    80001f3e:	f406                	sd	ra,40(sp)
    80001f40:	f022                	sd	s0,32(sp)
    80001f42:	ec26                	sd	s1,24(sp)
    80001f44:	e84a                	sd	s2,16(sp)
    80001f46:	e44e                	sd	s3,8(sp)
    80001f48:	1800                	addi	s0,sp,48
    80001f4a:	00000097          	auipc	ra,0x0
    80001f4e:	a5c080e7          	jalr	-1444(ra) # 800019a6 <myproc>
    80001f52:	84aa                	mv	s1,a0
    80001f54:	fffff097          	auipc	ra,0xfffff
    80001f58:	c04080e7          	jalr	-1020(ra) # 80000b58 <holding>
    80001f5c:	c93d                	beqz	a0,80001fd2 <sched+0x96>
    80001f5e:	8792                	mv	a5,tp
    80001f60:	2781                	sext.w	a5,a5
    80001f62:	079e                	slli	a5,a5,0x7
    80001f64:	0000f717          	auipc	a4,0xf
    80001f68:	bcc70713          	addi	a4,a4,-1076 # 80010b30 <pid_lock>
    80001f6c:	97ba                	add	a5,a5,a4
    80001f6e:	0a87a703          	lw	a4,168(a5)
    80001f72:	4785                	li	a5,1
    80001f74:	06f71763          	bne	a4,a5,80001fe2 <sched+0xa6>
    80001f78:	4c98                	lw	a4,24(s1)
    80001f7a:	4791                	li	a5,4
    80001f7c:	06f70b63          	beq	a4,a5,80001ff2 <sched+0xb6>
    80001f80:	100027f3          	csrr	a5,sstatus
    80001f84:	8b89                	andi	a5,a5,2
    80001f86:	efb5                	bnez	a5,80002002 <sched+0xc6>
    80001f88:	8792                	mv	a5,tp
    80001f8a:	0000f917          	auipc	s2,0xf
    80001f8e:	ba690913          	addi	s2,s2,-1114 # 80010b30 <pid_lock>
    80001f92:	2781                	sext.w	a5,a5
    80001f94:	079e                	slli	a5,a5,0x7
    80001f96:	97ca                	add	a5,a5,s2
    80001f98:	0ac7a983          	lw	s3,172(a5)
    80001f9c:	8792                	mv	a5,tp
    80001f9e:	2781                	sext.w	a5,a5
    80001fa0:	079e                	slli	a5,a5,0x7
    80001fa2:	0000f597          	auipc	a1,0xf
    80001fa6:	bc658593          	addi	a1,a1,-1082 # 80010b68 <cpus+0x8>
    80001faa:	95be                	add	a1,a1,a5
    80001fac:	06048513          	addi	a0,s1,96
    80001fb0:	00000097          	auipc	ra,0x0
    80001fb4:	602080e7          	jalr	1538(ra) # 800025b2 <swtch>
    80001fb8:	8792                	mv	a5,tp
    80001fba:	2781                	sext.w	a5,a5
    80001fbc:	079e                	slli	a5,a5,0x7
    80001fbe:	993e                	add	s2,s2,a5
    80001fc0:	0b392623          	sw	s3,172(s2)
    80001fc4:	70a2                	ld	ra,40(sp)
    80001fc6:	7402                	ld	s0,32(sp)
    80001fc8:	64e2                	ld	s1,24(sp)
    80001fca:	6942                	ld	s2,16(sp)
    80001fcc:	69a2                	ld	s3,8(sp)
    80001fce:	6145                	addi	sp,sp,48
    80001fd0:	8082                	ret
    80001fd2:	00006517          	auipc	a0,0x6
    80001fd6:	24650513          	addi	a0,a0,582 # 80008218 <digits+0x1d8>
    80001fda:	ffffe097          	auipc	ra,0xffffe
    80001fde:	562080e7          	jalr	1378(ra) # 8000053c <panic>
    80001fe2:	00006517          	auipc	a0,0x6
    80001fe6:	24650513          	addi	a0,a0,582 # 80008228 <digits+0x1e8>
    80001fea:	ffffe097          	auipc	ra,0xffffe
    80001fee:	552080e7          	jalr	1362(ra) # 8000053c <panic>
    80001ff2:	00006517          	auipc	a0,0x6
    80001ff6:	24650513          	addi	a0,a0,582 # 80008238 <digits+0x1f8>
    80001ffa:	ffffe097          	auipc	ra,0xffffe
    80001ffe:	542080e7          	jalr	1346(ra) # 8000053c <panic>
    80002002:	00006517          	auipc	a0,0x6
    80002006:	24650513          	addi	a0,a0,582 # 80008248 <digits+0x208>
    8000200a:	ffffe097          	auipc	ra,0xffffe
    8000200e:	532080e7          	jalr	1330(ra) # 8000053c <panic>

0000000080002012 <yield>:
    80002012:	1101                	addi	sp,sp,-32
    80002014:	ec06                	sd	ra,24(sp)
    80002016:	e822                	sd	s0,16(sp)
    80002018:	e426                	sd	s1,8(sp)
    8000201a:	1000                	addi	s0,sp,32
    8000201c:	00000097          	auipc	ra,0x0
    80002020:	98a080e7          	jalr	-1654(ra) # 800019a6 <myproc>
    80002024:	84aa                	mv	s1,a0
    80002026:	fffff097          	auipc	ra,0xfffff
    8000202a:	bac080e7          	jalr	-1108(ra) # 80000bd2 <acquire>
    8000202e:	478d                	li	a5,3
    80002030:	cc9c                	sw	a5,24(s1)
    80002032:	00000097          	auipc	ra,0x0
    80002036:	f0a080e7          	jalr	-246(ra) # 80001f3c <sched>
    8000203a:	8526                	mv	a0,s1
    8000203c:	fffff097          	auipc	ra,0xfffff
    80002040:	c4a080e7          	jalr	-950(ra) # 80000c86 <release>
    80002044:	60e2                	ld	ra,24(sp)
    80002046:	6442                	ld	s0,16(sp)
    80002048:	64a2                	ld	s1,8(sp)
    8000204a:	6105                	addi	sp,sp,32
    8000204c:	8082                	ret

000000008000204e <sleep>:
    8000204e:	7179                	addi	sp,sp,-48
    80002050:	f406                	sd	ra,40(sp)
    80002052:	f022                	sd	s0,32(sp)
    80002054:	ec26                	sd	s1,24(sp)
    80002056:	e84a                	sd	s2,16(sp)
    80002058:	e44e                	sd	s3,8(sp)
    8000205a:	1800                	addi	s0,sp,48
    8000205c:	89aa                	mv	s3,a0
    8000205e:	892e                	mv	s2,a1
    80002060:	00000097          	auipc	ra,0x0
    80002064:	946080e7          	jalr	-1722(ra) # 800019a6 <myproc>
    80002068:	84aa                	mv	s1,a0
    8000206a:	fffff097          	auipc	ra,0xfffff
    8000206e:	b68080e7          	jalr	-1176(ra) # 80000bd2 <acquire>
    80002072:	854a                	mv	a0,s2
    80002074:	fffff097          	auipc	ra,0xfffff
    80002078:	c12080e7          	jalr	-1006(ra) # 80000c86 <release>
    8000207c:	0334b023          	sd	s3,32(s1)
    80002080:	4789                	li	a5,2
    80002082:	cc9c                	sw	a5,24(s1)
    80002084:	00000097          	auipc	ra,0x0
    80002088:	eb8080e7          	jalr	-328(ra) # 80001f3c <sched>
    8000208c:	0204b023          	sd	zero,32(s1)
    80002090:	8526                	mv	a0,s1
    80002092:	fffff097          	auipc	ra,0xfffff
    80002096:	bf4080e7          	jalr	-1036(ra) # 80000c86 <release>
    8000209a:	854a                	mv	a0,s2
    8000209c:	fffff097          	auipc	ra,0xfffff
    800020a0:	b36080e7          	jalr	-1226(ra) # 80000bd2 <acquire>
    800020a4:	70a2                	ld	ra,40(sp)
    800020a6:	7402                	ld	s0,32(sp)
    800020a8:	64e2                	ld	s1,24(sp)
    800020aa:	6942                	ld	s2,16(sp)
    800020ac:	69a2                	ld	s3,8(sp)
    800020ae:	6145                	addi	sp,sp,48
    800020b0:	8082                	ret

00000000800020b2 <wakeup>:
    800020b2:	7139                	addi	sp,sp,-64
    800020b4:	fc06                	sd	ra,56(sp)
    800020b6:	f822                	sd	s0,48(sp)
    800020b8:	f426                	sd	s1,40(sp)
    800020ba:	f04a                	sd	s2,32(sp)
    800020bc:	ec4e                	sd	s3,24(sp)
    800020be:	e852                	sd	s4,16(sp)
    800020c0:	e456                	sd	s5,8(sp)
    800020c2:	0080                	addi	s0,sp,64
    800020c4:	8a2a                	mv	s4,a0
    800020c6:	0000f497          	auipc	s1,0xf
    800020ca:	e9a48493          	addi	s1,s1,-358 # 80010f60 <proc>
    800020ce:	4989                	li	s3,2
    800020d0:	4a8d                	li	s5,3
    800020d2:	00015917          	auipc	s2,0x15
    800020d6:	88e90913          	addi	s2,s2,-1906 # 80016960 <tickslock>
    800020da:	a811                	j	800020ee <wakeup+0x3c>
    800020dc:	8526                	mv	a0,s1
    800020de:	fffff097          	auipc	ra,0xfffff
    800020e2:	ba8080e7          	jalr	-1112(ra) # 80000c86 <release>
    800020e6:	16848493          	addi	s1,s1,360
    800020ea:	03248663          	beq	s1,s2,80002116 <wakeup+0x64>
    800020ee:	00000097          	auipc	ra,0x0
    800020f2:	8b8080e7          	jalr	-1864(ra) # 800019a6 <myproc>
    800020f6:	fea488e3          	beq	s1,a0,800020e6 <wakeup+0x34>
    800020fa:	8526                	mv	a0,s1
    800020fc:	fffff097          	auipc	ra,0xfffff
    80002100:	ad6080e7          	jalr	-1322(ra) # 80000bd2 <acquire>
    80002104:	4c9c                	lw	a5,24(s1)
    80002106:	fd379be3          	bne	a5,s3,800020dc <wakeup+0x2a>
    8000210a:	709c                	ld	a5,32(s1)
    8000210c:	fd4798e3          	bne	a5,s4,800020dc <wakeup+0x2a>
    80002110:	0154ac23          	sw	s5,24(s1)
    80002114:	b7e1                	j	800020dc <wakeup+0x2a>
    80002116:	70e2                	ld	ra,56(sp)
    80002118:	7442                	ld	s0,48(sp)
    8000211a:	74a2                	ld	s1,40(sp)
    8000211c:	7902                	ld	s2,32(sp)
    8000211e:	69e2                	ld	s3,24(sp)
    80002120:	6a42                	ld	s4,16(sp)
    80002122:	6aa2                	ld	s5,8(sp)
    80002124:	6121                	addi	sp,sp,64
    80002126:	8082                	ret

0000000080002128 <reparent>:
    80002128:	7179                	addi	sp,sp,-48
    8000212a:	f406                	sd	ra,40(sp)
    8000212c:	f022                	sd	s0,32(sp)
    8000212e:	ec26                	sd	s1,24(sp)
    80002130:	e84a                	sd	s2,16(sp)
    80002132:	e44e                	sd	s3,8(sp)
    80002134:	e052                	sd	s4,0(sp)
    80002136:	1800                	addi	s0,sp,48
    80002138:	892a                	mv	s2,a0
    8000213a:	0000f497          	auipc	s1,0xf
    8000213e:	e2648493          	addi	s1,s1,-474 # 80010f60 <proc>
    80002142:	00006a17          	auipc	s4,0x6
    80002146:	776a0a13          	addi	s4,s4,1910 # 800088b8 <initproc>
    8000214a:	00015997          	auipc	s3,0x15
    8000214e:	81698993          	addi	s3,s3,-2026 # 80016960 <tickslock>
    80002152:	a029                	j	8000215c <reparent+0x34>
    80002154:	16848493          	addi	s1,s1,360
    80002158:	01348d63          	beq	s1,s3,80002172 <reparent+0x4a>
    8000215c:	7c9c                	ld	a5,56(s1)
    8000215e:	ff279be3          	bne	a5,s2,80002154 <reparent+0x2c>
    80002162:	000a3503          	ld	a0,0(s4)
    80002166:	fc88                	sd	a0,56(s1)
    80002168:	00000097          	auipc	ra,0x0
    8000216c:	f4a080e7          	jalr	-182(ra) # 800020b2 <wakeup>
    80002170:	b7d5                	j	80002154 <reparent+0x2c>
    80002172:	70a2                	ld	ra,40(sp)
    80002174:	7402                	ld	s0,32(sp)
    80002176:	64e2                	ld	s1,24(sp)
    80002178:	6942                	ld	s2,16(sp)
    8000217a:	69a2                	ld	s3,8(sp)
    8000217c:	6a02                	ld	s4,0(sp)
    8000217e:	6145                	addi	sp,sp,48
    80002180:	8082                	ret

0000000080002182 <exit>:
    80002182:	7179                	addi	sp,sp,-48
    80002184:	f406                	sd	ra,40(sp)
    80002186:	f022                	sd	s0,32(sp)
    80002188:	ec26                	sd	s1,24(sp)
    8000218a:	e84a                	sd	s2,16(sp)
    8000218c:	e44e                	sd	s3,8(sp)
    8000218e:	e052                	sd	s4,0(sp)
    80002190:	1800                	addi	s0,sp,48
    80002192:	8a2a                	mv	s4,a0
    80002194:	00000097          	auipc	ra,0x0
    80002198:	812080e7          	jalr	-2030(ra) # 800019a6 <myproc>
    8000219c:	89aa                	mv	s3,a0
    8000219e:	00006797          	auipc	a5,0x6
    800021a2:	71a7b783          	ld	a5,1818(a5) # 800088b8 <initproc>
    800021a6:	0d050493          	addi	s1,a0,208
    800021aa:	15050913          	addi	s2,a0,336
    800021ae:	02a79363          	bne	a5,a0,800021d4 <exit+0x52>
    800021b2:	00006517          	auipc	a0,0x6
    800021b6:	0ae50513          	addi	a0,a0,174 # 80008260 <digits+0x220>
    800021ba:	ffffe097          	auipc	ra,0xffffe
    800021be:	382080e7          	jalr	898(ra) # 8000053c <panic>
    800021c2:	00002097          	auipc	ra,0x2
    800021c6:	2ca080e7          	jalr	714(ra) # 8000448c <fileclose>
    800021ca:	0004b023          	sd	zero,0(s1)
    800021ce:	04a1                	addi	s1,s1,8
    800021d0:	01248563          	beq	s1,s2,800021da <exit+0x58>
    800021d4:	6088                	ld	a0,0(s1)
    800021d6:	f575                	bnez	a0,800021c2 <exit+0x40>
    800021d8:	bfdd                	j	800021ce <exit+0x4c>
    800021da:	00002097          	auipc	ra,0x2
    800021de:	dee080e7          	jalr	-530(ra) # 80003fc8 <begin_op>
    800021e2:	1509b503          	ld	a0,336(s3)
    800021e6:	00001097          	auipc	ra,0x1
    800021ea:	5f6080e7          	jalr	1526(ra) # 800037dc <iput>
    800021ee:	00002097          	auipc	ra,0x2
    800021f2:	e54080e7          	jalr	-428(ra) # 80004042 <end_op>
    800021f6:	1409b823          	sd	zero,336(s3)
    800021fa:	0000f497          	auipc	s1,0xf
    800021fe:	94e48493          	addi	s1,s1,-1714 # 80010b48 <wait_lock>
    80002202:	8526                	mv	a0,s1
    80002204:	fffff097          	auipc	ra,0xfffff
    80002208:	9ce080e7          	jalr	-1586(ra) # 80000bd2 <acquire>
    8000220c:	854e                	mv	a0,s3
    8000220e:	00000097          	auipc	ra,0x0
    80002212:	f1a080e7          	jalr	-230(ra) # 80002128 <reparent>
    80002216:	0389b503          	ld	a0,56(s3)
    8000221a:	00000097          	auipc	ra,0x0
    8000221e:	e98080e7          	jalr	-360(ra) # 800020b2 <wakeup>
    80002222:	854e                	mv	a0,s3
    80002224:	fffff097          	auipc	ra,0xfffff
    80002228:	9ae080e7          	jalr	-1618(ra) # 80000bd2 <acquire>
    8000222c:	0349a623          	sw	s4,44(s3)
    80002230:	4795                	li	a5,5
    80002232:	00f9ac23          	sw	a5,24(s3)
    80002236:	8526                	mv	a0,s1
    80002238:	fffff097          	auipc	ra,0xfffff
    8000223c:	a4e080e7          	jalr	-1458(ra) # 80000c86 <release>
    80002240:	00000097          	auipc	ra,0x0
    80002244:	cfc080e7          	jalr	-772(ra) # 80001f3c <sched>
    80002248:	00006517          	auipc	a0,0x6
    8000224c:	02850513          	addi	a0,a0,40 # 80008270 <digits+0x230>
    80002250:	ffffe097          	auipc	ra,0xffffe
    80002254:	2ec080e7          	jalr	748(ra) # 8000053c <panic>

0000000080002258 <kill>:
    80002258:	7179                	addi	sp,sp,-48
    8000225a:	f406                	sd	ra,40(sp)
    8000225c:	f022                	sd	s0,32(sp)
    8000225e:	ec26                	sd	s1,24(sp)
    80002260:	e84a                	sd	s2,16(sp)
    80002262:	e44e                	sd	s3,8(sp)
    80002264:	1800                	addi	s0,sp,48
    80002266:	892a                	mv	s2,a0
    80002268:	0000f497          	auipc	s1,0xf
    8000226c:	cf848493          	addi	s1,s1,-776 # 80010f60 <proc>
    80002270:	00014997          	auipc	s3,0x14
    80002274:	6f098993          	addi	s3,s3,1776 # 80016960 <tickslock>
    80002278:	8526                	mv	a0,s1
    8000227a:	fffff097          	auipc	ra,0xfffff
    8000227e:	958080e7          	jalr	-1704(ra) # 80000bd2 <acquire>
    80002282:	589c                	lw	a5,48(s1)
    80002284:	01278d63          	beq	a5,s2,8000229e <kill+0x46>
    80002288:	8526                	mv	a0,s1
    8000228a:	fffff097          	auipc	ra,0xfffff
    8000228e:	9fc080e7          	jalr	-1540(ra) # 80000c86 <release>
    80002292:	16848493          	addi	s1,s1,360
    80002296:	ff3491e3          	bne	s1,s3,80002278 <kill+0x20>
    8000229a:	557d                	li	a0,-1
    8000229c:	a829                	j	800022b6 <kill+0x5e>
    8000229e:	4785                	li	a5,1
    800022a0:	d49c                	sw	a5,40(s1)
    800022a2:	4c98                	lw	a4,24(s1)
    800022a4:	4789                	li	a5,2
    800022a6:	00f70f63          	beq	a4,a5,800022c4 <kill+0x6c>
    800022aa:	8526                	mv	a0,s1
    800022ac:	fffff097          	auipc	ra,0xfffff
    800022b0:	9da080e7          	jalr	-1574(ra) # 80000c86 <release>
    800022b4:	4501                	li	a0,0
    800022b6:	70a2                	ld	ra,40(sp)
    800022b8:	7402                	ld	s0,32(sp)
    800022ba:	64e2                	ld	s1,24(sp)
    800022bc:	6942                	ld	s2,16(sp)
    800022be:	69a2                	ld	s3,8(sp)
    800022c0:	6145                	addi	sp,sp,48
    800022c2:	8082                	ret
    800022c4:	478d                	li	a5,3
    800022c6:	cc9c                	sw	a5,24(s1)
    800022c8:	b7cd                	j	800022aa <kill+0x52>

00000000800022ca <setkilled>:
    800022ca:	1101                	addi	sp,sp,-32
    800022cc:	ec06                	sd	ra,24(sp)
    800022ce:	e822                	sd	s0,16(sp)
    800022d0:	e426                	sd	s1,8(sp)
    800022d2:	1000                	addi	s0,sp,32
    800022d4:	84aa                	mv	s1,a0
    800022d6:	fffff097          	auipc	ra,0xfffff
    800022da:	8fc080e7          	jalr	-1796(ra) # 80000bd2 <acquire>
    800022de:	4785                	li	a5,1
    800022e0:	d49c                	sw	a5,40(s1)
    800022e2:	8526                	mv	a0,s1
    800022e4:	fffff097          	auipc	ra,0xfffff
    800022e8:	9a2080e7          	jalr	-1630(ra) # 80000c86 <release>
    800022ec:	60e2                	ld	ra,24(sp)
    800022ee:	6442                	ld	s0,16(sp)
    800022f0:	64a2                	ld	s1,8(sp)
    800022f2:	6105                	addi	sp,sp,32
    800022f4:	8082                	ret

00000000800022f6 <killed>:
    800022f6:	1101                	addi	sp,sp,-32
    800022f8:	ec06                	sd	ra,24(sp)
    800022fa:	e822                	sd	s0,16(sp)
    800022fc:	e426                	sd	s1,8(sp)
    800022fe:	e04a                	sd	s2,0(sp)
    80002300:	1000                	addi	s0,sp,32
    80002302:	84aa                	mv	s1,a0
    80002304:	fffff097          	auipc	ra,0xfffff
    80002308:	8ce080e7          	jalr	-1842(ra) # 80000bd2 <acquire>
    8000230c:	0284a903          	lw	s2,40(s1)
    80002310:	8526                	mv	a0,s1
    80002312:	fffff097          	auipc	ra,0xfffff
    80002316:	974080e7          	jalr	-1676(ra) # 80000c86 <release>
    8000231a:	854a                	mv	a0,s2
    8000231c:	60e2                	ld	ra,24(sp)
    8000231e:	6442                	ld	s0,16(sp)
    80002320:	64a2                	ld	s1,8(sp)
    80002322:	6902                	ld	s2,0(sp)
    80002324:	6105                	addi	sp,sp,32
    80002326:	8082                	ret

0000000080002328 <wait>:
    80002328:	715d                	addi	sp,sp,-80
    8000232a:	e486                	sd	ra,72(sp)
    8000232c:	e0a2                	sd	s0,64(sp)
    8000232e:	fc26                	sd	s1,56(sp)
    80002330:	f84a                	sd	s2,48(sp)
    80002332:	f44e                	sd	s3,40(sp)
    80002334:	f052                	sd	s4,32(sp)
    80002336:	ec56                	sd	s5,24(sp)
    80002338:	e85a                	sd	s6,16(sp)
    8000233a:	e45e                	sd	s7,8(sp)
    8000233c:	e062                	sd	s8,0(sp)
    8000233e:	0880                	addi	s0,sp,80
    80002340:	8b2a                	mv	s6,a0
    80002342:	fffff097          	auipc	ra,0xfffff
    80002346:	664080e7          	jalr	1636(ra) # 800019a6 <myproc>
    8000234a:	892a                	mv	s2,a0
    8000234c:	0000e517          	auipc	a0,0xe
    80002350:	7fc50513          	addi	a0,a0,2044 # 80010b48 <wait_lock>
    80002354:	fffff097          	auipc	ra,0xfffff
    80002358:	87e080e7          	jalr	-1922(ra) # 80000bd2 <acquire>
    8000235c:	4b81                	li	s7,0
    8000235e:	4a15                	li	s4,5
    80002360:	4a85                	li	s5,1
    80002362:	00014997          	auipc	s3,0x14
    80002366:	5fe98993          	addi	s3,s3,1534 # 80016960 <tickslock>
    8000236a:	0000ec17          	auipc	s8,0xe
    8000236e:	7dec0c13          	addi	s8,s8,2014 # 80010b48 <wait_lock>
    80002372:	a0d1                	j	80002436 <wait+0x10e>
    80002374:	0304a983          	lw	s3,48(s1)
    80002378:	000b0e63          	beqz	s6,80002394 <wait+0x6c>
    8000237c:	4691                	li	a3,4
    8000237e:	02c48613          	addi	a2,s1,44
    80002382:	85da                	mv	a1,s6
    80002384:	05093503          	ld	a0,80(s2)
    80002388:	fffff097          	auipc	ra,0xfffff
    8000238c:	2de080e7          	jalr	734(ra) # 80001666 <copyout>
    80002390:	04054163          	bltz	a0,800023d2 <wait+0xaa>
    80002394:	8526                	mv	a0,s1
    80002396:	fffff097          	auipc	ra,0xfffff
    8000239a:	7c2080e7          	jalr	1986(ra) # 80001b58 <freeproc>
    8000239e:	8526                	mv	a0,s1
    800023a0:	fffff097          	auipc	ra,0xfffff
    800023a4:	8e6080e7          	jalr	-1818(ra) # 80000c86 <release>
    800023a8:	0000e517          	auipc	a0,0xe
    800023ac:	7a050513          	addi	a0,a0,1952 # 80010b48 <wait_lock>
    800023b0:	fffff097          	auipc	ra,0xfffff
    800023b4:	8d6080e7          	jalr	-1834(ra) # 80000c86 <release>
    800023b8:	854e                	mv	a0,s3
    800023ba:	60a6                	ld	ra,72(sp)
    800023bc:	6406                	ld	s0,64(sp)
    800023be:	74e2                	ld	s1,56(sp)
    800023c0:	7942                	ld	s2,48(sp)
    800023c2:	79a2                	ld	s3,40(sp)
    800023c4:	7a02                	ld	s4,32(sp)
    800023c6:	6ae2                	ld	s5,24(sp)
    800023c8:	6b42                	ld	s6,16(sp)
    800023ca:	6ba2                	ld	s7,8(sp)
    800023cc:	6c02                	ld	s8,0(sp)
    800023ce:	6161                	addi	sp,sp,80
    800023d0:	8082                	ret
    800023d2:	8526                	mv	a0,s1
    800023d4:	fffff097          	auipc	ra,0xfffff
    800023d8:	8b2080e7          	jalr	-1870(ra) # 80000c86 <release>
    800023dc:	0000e517          	auipc	a0,0xe
    800023e0:	76c50513          	addi	a0,a0,1900 # 80010b48 <wait_lock>
    800023e4:	fffff097          	auipc	ra,0xfffff
    800023e8:	8a2080e7          	jalr	-1886(ra) # 80000c86 <release>
    800023ec:	59fd                	li	s3,-1
    800023ee:	b7e9                	j	800023b8 <wait+0x90>
    800023f0:	16848493          	addi	s1,s1,360
    800023f4:	03348463          	beq	s1,s3,8000241c <wait+0xf4>
    800023f8:	7c9c                	ld	a5,56(s1)
    800023fa:	ff279be3          	bne	a5,s2,800023f0 <wait+0xc8>
    800023fe:	8526                	mv	a0,s1
    80002400:	ffffe097          	auipc	ra,0xffffe
    80002404:	7d2080e7          	jalr	2002(ra) # 80000bd2 <acquire>
    80002408:	4c9c                	lw	a5,24(s1)
    8000240a:	f74785e3          	beq	a5,s4,80002374 <wait+0x4c>
    8000240e:	8526                	mv	a0,s1
    80002410:	fffff097          	auipc	ra,0xfffff
    80002414:	876080e7          	jalr	-1930(ra) # 80000c86 <release>
    80002418:	8756                	mv	a4,s5
    8000241a:	bfd9                	j	800023f0 <wait+0xc8>
    8000241c:	c31d                	beqz	a4,80002442 <wait+0x11a>
    8000241e:	854a                	mv	a0,s2
    80002420:	00000097          	auipc	ra,0x0
    80002424:	ed6080e7          	jalr	-298(ra) # 800022f6 <killed>
    80002428:	ed09                	bnez	a0,80002442 <wait+0x11a>
    8000242a:	85e2                	mv	a1,s8
    8000242c:	854a                	mv	a0,s2
    8000242e:	00000097          	auipc	ra,0x0
    80002432:	c20080e7          	jalr	-992(ra) # 8000204e <sleep>
    80002436:	875e                	mv	a4,s7
    80002438:	0000f497          	auipc	s1,0xf
    8000243c:	b2848493          	addi	s1,s1,-1240 # 80010f60 <proc>
    80002440:	bf65                	j	800023f8 <wait+0xd0>
    80002442:	0000e517          	auipc	a0,0xe
    80002446:	70650513          	addi	a0,a0,1798 # 80010b48 <wait_lock>
    8000244a:	fffff097          	auipc	ra,0xfffff
    8000244e:	83c080e7          	jalr	-1988(ra) # 80000c86 <release>
    80002452:	59fd                	li	s3,-1
    80002454:	b795                	j	800023b8 <wait+0x90>

0000000080002456 <either_copyout>:
    80002456:	7179                	addi	sp,sp,-48
    80002458:	f406                	sd	ra,40(sp)
    8000245a:	f022                	sd	s0,32(sp)
    8000245c:	ec26                	sd	s1,24(sp)
    8000245e:	e84a                	sd	s2,16(sp)
    80002460:	e44e                	sd	s3,8(sp)
    80002462:	e052                	sd	s4,0(sp)
    80002464:	1800                	addi	s0,sp,48
    80002466:	84aa                	mv	s1,a0
    80002468:	892e                	mv	s2,a1
    8000246a:	89b2                	mv	s3,a2
    8000246c:	8a36                	mv	s4,a3
    8000246e:	fffff097          	auipc	ra,0xfffff
    80002472:	538080e7          	jalr	1336(ra) # 800019a6 <myproc>
    80002476:	c08d                	beqz	s1,80002498 <either_copyout+0x42>
    80002478:	86d2                	mv	a3,s4
    8000247a:	864e                	mv	a2,s3
    8000247c:	85ca                	mv	a1,s2
    8000247e:	6928                	ld	a0,80(a0)
    80002480:	fffff097          	auipc	ra,0xfffff
    80002484:	1e6080e7          	jalr	486(ra) # 80001666 <copyout>
    80002488:	70a2                	ld	ra,40(sp)
    8000248a:	7402                	ld	s0,32(sp)
    8000248c:	64e2                	ld	s1,24(sp)
    8000248e:	6942                	ld	s2,16(sp)
    80002490:	69a2                	ld	s3,8(sp)
    80002492:	6a02                	ld	s4,0(sp)
    80002494:	6145                	addi	sp,sp,48
    80002496:	8082                	ret
    80002498:	000a061b          	sext.w	a2,s4
    8000249c:	85ce                	mv	a1,s3
    8000249e:	854a                	mv	a0,s2
    800024a0:	fffff097          	auipc	ra,0xfffff
    800024a4:	88a080e7          	jalr	-1910(ra) # 80000d2a <memmove>
    800024a8:	8526                	mv	a0,s1
    800024aa:	bff9                	j	80002488 <either_copyout+0x32>

00000000800024ac <either_copyin>:
    800024ac:	7179                	addi	sp,sp,-48
    800024ae:	f406                	sd	ra,40(sp)
    800024b0:	f022                	sd	s0,32(sp)
    800024b2:	ec26                	sd	s1,24(sp)
    800024b4:	e84a                	sd	s2,16(sp)
    800024b6:	e44e                	sd	s3,8(sp)
    800024b8:	e052                	sd	s4,0(sp)
    800024ba:	1800                	addi	s0,sp,48
    800024bc:	892a                	mv	s2,a0
    800024be:	84ae                	mv	s1,a1
    800024c0:	89b2                	mv	s3,a2
    800024c2:	8a36                	mv	s4,a3
    800024c4:	fffff097          	auipc	ra,0xfffff
    800024c8:	4e2080e7          	jalr	1250(ra) # 800019a6 <myproc>
    800024cc:	c08d                	beqz	s1,800024ee <either_copyin+0x42>
    800024ce:	86d2                	mv	a3,s4
    800024d0:	864e                	mv	a2,s3
    800024d2:	85ca                	mv	a1,s2
    800024d4:	6928                	ld	a0,80(a0)
    800024d6:	fffff097          	auipc	ra,0xfffff
    800024da:	21c080e7          	jalr	540(ra) # 800016f2 <copyin>
    800024de:	70a2                	ld	ra,40(sp)
    800024e0:	7402                	ld	s0,32(sp)
    800024e2:	64e2                	ld	s1,24(sp)
    800024e4:	6942                	ld	s2,16(sp)
    800024e6:	69a2                	ld	s3,8(sp)
    800024e8:	6a02                	ld	s4,0(sp)
    800024ea:	6145                	addi	sp,sp,48
    800024ec:	8082                	ret
    800024ee:	000a061b          	sext.w	a2,s4
    800024f2:	85ce                	mv	a1,s3
    800024f4:	854a                	mv	a0,s2
    800024f6:	fffff097          	auipc	ra,0xfffff
    800024fa:	834080e7          	jalr	-1996(ra) # 80000d2a <memmove>
    800024fe:	8526                	mv	a0,s1
    80002500:	bff9                	j	800024de <either_copyin+0x32>

0000000080002502 <procdump>:
    80002502:	715d                	addi	sp,sp,-80
    80002504:	e486                	sd	ra,72(sp)
    80002506:	e0a2                	sd	s0,64(sp)
    80002508:	fc26                	sd	s1,56(sp)
    8000250a:	f84a                	sd	s2,48(sp)
    8000250c:	f44e                	sd	s3,40(sp)
    8000250e:	f052                	sd	s4,32(sp)
    80002510:	ec56                	sd	s5,24(sp)
    80002512:	e85a                	sd	s6,16(sp)
    80002514:	e45e                	sd	s7,8(sp)
    80002516:	0880                	addi	s0,sp,80
    80002518:	00006517          	auipc	a0,0x6
    8000251c:	bb050513          	addi	a0,a0,-1104 # 800080c8 <digits+0x88>
    80002520:	ffffe097          	auipc	ra,0xffffe
    80002524:	066080e7          	jalr	102(ra) # 80000586 <printf>
    80002528:	0000f497          	auipc	s1,0xf
    8000252c:	b9048493          	addi	s1,s1,-1136 # 800110b8 <proc+0x158>
    80002530:	00014917          	auipc	s2,0x14
    80002534:	58890913          	addi	s2,s2,1416 # 80016ab8 <bcache+0x140>
    80002538:	4b15                	li	s6,5
    8000253a:	00006997          	auipc	s3,0x6
    8000253e:	d4698993          	addi	s3,s3,-698 # 80008280 <digits+0x240>
    80002542:	00006a97          	auipc	s5,0x6
    80002546:	d46a8a93          	addi	s5,s5,-698 # 80008288 <digits+0x248>
    8000254a:	00006a17          	auipc	s4,0x6
    8000254e:	b7ea0a13          	addi	s4,s4,-1154 # 800080c8 <digits+0x88>
    80002552:	00006b97          	auipc	s7,0x6
    80002556:	d76b8b93          	addi	s7,s7,-650 # 800082c8 <states.0>
    8000255a:	a00d                	j	8000257c <procdump+0x7a>
    8000255c:	ed86a583          	lw	a1,-296(a3)
    80002560:	8556                	mv	a0,s5
    80002562:	ffffe097          	auipc	ra,0xffffe
    80002566:	024080e7          	jalr	36(ra) # 80000586 <printf>
    8000256a:	8552                	mv	a0,s4
    8000256c:	ffffe097          	auipc	ra,0xffffe
    80002570:	01a080e7          	jalr	26(ra) # 80000586 <printf>
    80002574:	16848493          	addi	s1,s1,360
    80002578:	03248263          	beq	s1,s2,8000259c <procdump+0x9a>
    8000257c:	86a6                	mv	a3,s1
    8000257e:	ec04a783          	lw	a5,-320(s1)
    80002582:	dbed                	beqz	a5,80002574 <procdump+0x72>
    80002584:	864e                	mv	a2,s3
    80002586:	fcfb6be3          	bltu	s6,a5,8000255c <procdump+0x5a>
    8000258a:	02079713          	slli	a4,a5,0x20
    8000258e:	01d75793          	srli	a5,a4,0x1d
    80002592:	97de                	add	a5,a5,s7
    80002594:	6390                	ld	a2,0(a5)
    80002596:	f279                	bnez	a2,8000255c <procdump+0x5a>
    80002598:	864e                	mv	a2,s3
    8000259a:	b7c9                	j	8000255c <procdump+0x5a>
    8000259c:	60a6                	ld	ra,72(sp)
    8000259e:	6406                	ld	s0,64(sp)
    800025a0:	74e2                	ld	s1,56(sp)
    800025a2:	7942                	ld	s2,48(sp)
    800025a4:	79a2                	ld	s3,40(sp)
    800025a6:	7a02                	ld	s4,32(sp)
    800025a8:	6ae2                	ld	s5,24(sp)
    800025aa:	6b42                	ld	s6,16(sp)
    800025ac:	6ba2                	ld	s7,8(sp)
    800025ae:	6161                	addi	sp,sp,80
    800025b0:	8082                	ret

00000000800025b2 <swtch>:
    800025b2:	00153023          	sd	ra,0(a0)
    800025b6:	00253423          	sd	sp,8(a0)
    800025ba:	e900                	sd	s0,16(a0)
    800025bc:	ed04                	sd	s1,24(a0)
    800025be:	03253023          	sd	s2,32(a0)
    800025c2:	03353423          	sd	s3,40(a0)
    800025c6:	03453823          	sd	s4,48(a0)
    800025ca:	03553c23          	sd	s5,56(a0)
    800025ce:	05653023          	sd	s6,64(a0)
    800025d2:	05753423          	sd	s7,72(a0)
    800025d6:	05853823          	sd	s8,80(a0)
    800025da:	05953c23          	sd	s9,88(a0)
    800025de:	07a53023          	sd	s10,96(a0)
    800025e2:	07b53423          	sd	s11,104(a0)
    800025e6:	0005b083          	ld	ra,0(a1)
    800025ea:	0085b103          	ld	sp,8(a1)
    800025ee:	6980                	ld	s0,16(a1)
    800025f0:	6d84                	ld	s1,24(a1)
    800025f2:	0205b903          	ld	s2,32(a1)
    800025f6:	0285b983          	ld	s3,40(a1)
    800025fa:	0305ba03          	ld	s4,48(a1)
    800025fe:	0385ba83          	ld	s5,56(a1)
    80002602:	0405bb03          	ld	s6,64(a1)
    80002606:	0485bb83          	ld	s7,72(a1)
    8000260a:	0505bc03          	ld	s8,80(a1)
    8000260e:	0585bc83          	ld	s9,88(a1)
    80002612:	0605bd03          	ld	s10,96(a1)
    80002616:	0685bd83          	ld	s11,104(a1)
    8000261a:	8082                	ret

000000008000261c <trapinit>:
    8000261c:	1141                	addi	sp,sp,-16
    8000261e:	e406                	sd	ra,8(sp)
    80002620:	e022                	sd	s0,0(sp)
    80002622:	0800                	addi	s0,sp,16
    80002624:	00006597          	auipc	a1,0x6
    80002628:	cd458593          	addi	a1,a1,-812 # 800082f8 <states.0+0x30>
    8000262c:	00014517          	auipc	a0,0x14
    80002630:	33450513          	addi	a0,a0,820 # 80016960 <tickslock>
    80002634:	ffffe097          	auipc	ra,0xffffe
    80002638:	50e080e7          	jalr	1294(ra) # 80000b42 <initlock>
    8000263c:	60a2                	ld	ra,8(sp)
    8000263e:	6402                	ld	s0,0(sp)
    80002640:	0141                	addi	sp,sp,16
    80002642:	8082                	ret

0000000080002644 <trapinithart>:
    80002644:	1141                	addi	sp,sp,-16
    80002646:	e422                	sd	s0,8(sp)
    80002648:	0800                	addi	s0,sp,16
    8000264a:	00003797          	auipc	a5,0x3
    8000264e:	46678793          	addi	a5,a5,1126 # 80005ab0 <kernelvec>
    80002652:	10579073          	csrw	stvec,a5
    80002656:	6422                	ld	s0,8(sp)
    80002658:	0141                	addi	sp,sp,16
    8000265a:	8082                	ret

000000008000265c <usertrapret>:
    8000265c:	1141                	addi	sp,sp,-16
    8000265e:	e406                	sd	ra,8(sp)
    80002660:	e022                	sd	s0,0(sp)
    80002662:	0800                	addi	s0,sp,16
    80002664:	fffff097          	auipc	ra,0xfffff
    80002668:	342080e7          	jalr	834(ra) # 800019a6 <myproc>
    8000266c:	100027f3          	csrr	a5,sstatus
    80002670:	9bf5                	andi	a5,a5,-3
    80002672:	10079073          	csrw	sstatus,a5
    80002676:	00005697          	auipc	a3,0x5
    8000267a:	98a68693          	addi	a3,a3,-1654 # 80007000 <_trampoline>
    8000267e:	00005717          	auipc	a4,0x5
    80002682:	98270713          	addi	a4,a4,-1662 # 80007000 <_trampoline>
    80002686:	8f15                	sub	a4,a4,a3
    80002688:	040007b7          	lui	a5,0x4000
    8000268c:	17fd                	addi	a5,a5,-1 # 3ffffff <_entry-0x7c000001>
    8000268e:	07b2                	slli	a5,a5,0xc
    80002690:	973e                	add	a4,a4,a5
    80002692:	10571073          	csrw	stvec,a4
    80002696:	6d38                	ld	a4,88(a0)
    80002698:	18002673          	csrr	a2,satp
    8000269c:	e310                	sd	a2,0(a4)
    8000269e:	6d30                	ld	a2,88(a0)
    800026a0:	6138                	ld	a4,64(a0)
    800026a2:	6585                	lui	a1,0x1
    800026a4:	972e                	add	a4,a4,a1
    800026a6:	e618                	sd	a4,8(a2)
    800026a8:	6d38                	ld	a4,88(a0)
    800026aa:	00000617          	auipc	a2,0x0
    800026ae:	13460613          	addi	a2,a2,308 # 800027de <usertrap>
    800026b2:	eb10                	sd	a2,16(a4)
    800026b4:	6d38                	ld	a4,88(a0)
    800026b6:	8612                	mv	a2,tp
    800026b8:	f310                	sd	a2,32(a4)
    800026ba:	10002773          	csrr	a4,sstatus
    800026be:	eff77713          	andi	a4,a4,-257
    800026c2:	02076713          	ori	a4,a4,32
    800026c6:	10071073          	csrw	sstatus,a4
    800026ca:	6d38                	ld	a4,88(a0)
    800026cc:	6f18                	ld	a4,24(a4)
    800026ce:	14171073          	csrw	sepc,a4
    800026d2:	6928                	ld	a0,80(a0)
    800026d4:	8131                	srli	a0,a0,0xc
    800026d6:	00005717          	auipc	a4,0x5
    800026da:	9c670713          	addi	a4,a4,-1594 # 8000709c <userret>
    800026de:	8f15                	sub	a4,a4,a3
    800026e0:	97ba                	add	a5,a5,a4
    800026e2:	577d                	li	a4,-1
    800026e4:	177e                	slli	a4,a4,0x3f
    800026e6:	8d59                	or	a0,a0,a4
    800026e8:	9782                	jalr	a5
    800026ea:	60a2                	ld	ra,8(sp)
    800026ec:	6402                	ld	s0,0(sp)
    800026ee:	0141                	addi	sp,sp,16
    800026f0:	8082                	ret

00000000800026f2 <clockintr>:
    800026f2:	1101                	addi	sp,sp,-32
    800026f4:	ec06                	sd	ra,24(sp)
    800026f6:	e822                	sd	s0,16(sp)
    800026f8:	e426                	sd	s1,8(sp)
    800026fa:	1000                	addi	s0,sp,32
    800026fc:	00014497          	auipc	s1,0x14
    80002700:	26448493          	addi	s1,s1,612 # 80016960 <tickslock>
    80002704:	8526                	mv	a0,s1
    80002706:	ffffe097          	auipc	ra,0xffffe
    8000270a:	4cc080e7          	jalr	1228(ra) # 80000bd2 <acquire>
    8000270e:	00006517          	auipc	a0,0x6
    80002712:	1b250513          	addi	a0,a0,434 # 800088c0 <ticks>
    80002716:	411c                	lw	a5,0(a0)
    80002718:	2785                	addiw	a5,a5,1
    8000271a:	c11c                	sw	a5,0(a0)
    8000271c:	00000097          	auipc	ra,0x0
    80002720:	996080e7          	jalr	-1642(ra) # 800020b2 <wakeup>
    80002724:	8526                	mv	a0,s1
    80002726:	ffffe097          	auipc	ra,0xffffe
    8000272a:	560080e7          	jalr	1376(ra) # 80000c86 <release>
    8000272e:	60e2                	ld	ra,24(sp)
    80002730:	6442                	ld	s0,16(sp)
    80002732:	64a2                	ld	s1,8(sp)
    80002734:	6105                	addi	sp,sp,32
    80002736:	8082                	ret

0000000080002738 <devintr>:
    80002738:	142027f3          	csrr	a5,scause
    8000273c:	4501                	li	a0,0
    8000273e:	0807df63          	bgez	a5,800027dc <devintr+0xa4>
    80002742:	1101                	addi	sp,sp,-32
    80002744:	ec06                	sd	ra,24(sp)
    80002746:	e822                	sd	s0,16(sp)
    80002748:	e426                	sd	s1,8(sp)
    8000274a:	1000                	addi	s0,sp,32
    8000274c:	0ff7f713          	zext.b	a4,a5
    80002750:	46a5                	li	a3,9
    80002752:	00d70d63          	beq	a4,a3,8000276c <devintr+0x34>
    80002756:	577d                	li	a4,-1
    80002758:	177e                	slli	a4,a4,0x3f
    8000275a:	0705                	addi	a4,a4,1
    8000275c:	4501                	li	a0,0
    8000275e:	04e78e63          	beq	a5,a4,800027ba <devintr+0x82>
    80002762:	60e2                	ld	ra,24(sp)
    80002764:	6442                	ld	s0,16(sp)
    80002766:	64a2                	ld	s1,8(sp)
    80002768:	6105                	addi	sp,sp,32
    8000276a:	8082                	ret
    8000276c:	00003097          	auipc	ra,0x3
    80002770:	44c080e7          	jalr	1100(ra) # 80005bb8 <plic_claim>
    80002774:	84aa                	mv	s1,a0
    80002776:	47a9                	li	a5,10
    80002778:	02f50763          	beq	a0,a5,800027a6 <devintr+0x6e>
    8000277c:	4785                	li	a5,1
    8000277e:	02f50963          	beq	a0,a5,800027b0 <devintr+0x78>
    80002782:	4505                	li	a0,1
    80002784:	dcf9                	beqz	s1,80002762 <devintr+0x2a>
    80002786:	85a6                	mv	a1,s1
    80002788:	00006517          	auipc	a0,0x6
    8000278c:	b7850513          	addi	a0,a0,-1160 # 80008300 <states.0+0x38>
    80002790:	ffffe097          	auipc	ra,0xffffe
    80002794:	df6080e7          	jalr	-522(ra) # 80000586 <printf>
    80002798:	8526                	mv	a0,s1
    8000279a:	00003097          	auipc	ra,0x3
    8000279e:	442080e7          	jalr	1090(ra) # 80005bdc <plic_complete>
    800027a2:	4505                	li	a0,1
    800027a4:	bf7d                	j	80002762 <devintr+0x2a>
    800027a6:	ffffe097          	auipc	ra,0xffffe
    800027aa:	1ee080e7          	jalr	494(ra) # 80000994 <uartintr>
    800027ae:	b7ed                	j	80002798 <devintr+0x60>
    800027b0:	00004097          	auipc	ra,0x4
    800027b4:	8f2080e7          	jalr	-1806(ra) # 800060a2 <virtio_disk_intr>
    800027b8:	b7c5                	j	80002798 <devintr+0x60>
    800027ba:	fffff097          	auipc	ra,0xfffff
    800027be:	1c0080e7          	jalr	448(ra) # 8000197a <cpuid>
    800027c2:	c901                	beqz	a0,800027d2 <devintr+0x9a>
    800027c4:	144027f3          	csrr	a5,sip
    800027c8:	9bf5                	andi	a5,a5,-3
    800027ca:	14479073          	csrw	sip,a5
    800027ce:	4509                	li	a0,2
    800027d0:	bf49                	j	80002762 <devintr+0x2a>
    800027d2:	00000097          	auipc	ra,0x0
    800027d6:	f20080e7          	jalr	-224(ra) # 800026f2 <clockintr>
    800027da:	b7ed                	j	800027c4 <devintr+0x8c>
    800027dc:	8082                	ret

00000000800027de <usertrap>:
    800027de:	1101                	addi	sp,sp,-32
    800027e0:	ec06                	sd	ra,24(sp)
    800027e2:	e822                	sd	s0,16(sp)
    800027e4:	e426                	sd	s1,8(sp)
    800027e6:	e04a                	sd	s2,0(sp)
    800027e8:	1000                	addi	s0,sp,32
    800027ea:	100027f3          	csrr	a5,sstatus
    800027ee:	1007f793          	andi	a5,a5,256
    800027f2:	e3b1                	bnez	a5,80002836 <usertrap+0x58>
    800027f4:	00003797          	auipc	a5,0x3
    800027f8:	2bc78793          	addi	a5,a5,700 # 80005ab0 <kernelvec>
    800027fc:	10579073          	csrw	stvec,a5
    80002800:	fffff097          	auipc	ra,0xfffff
    80002804:	1a6080e7          	jalr	422(ra) # 800019a6 <myproc>
    80002808:	84aa                	mv	s1,a0
    8000280a:	6d3c                	ld	a5,88(a0)
    8000280c:	14102773          	csrr	a4,sepc
    80002810:	ef98                	sd	a4,24(a5)
    80002812:	14202773          	csrr	a4,scause
    80002816:	47a1                	li	a5,8
    80002818:	02f70763          	beq	a4,a5,80002846 <usertrap+0x68>
    8000281c:	00000097          	auipc	ra,0x0
    80002820:	f1c080e7          	jalr	-228(ra) # 80002738 <devintr>
    80002824:	892a                	mv	s2,a0
    80002826:	c151                	beqz	a0,800028aa <usertrap+0xcc>
    80002828:	8526                	mv	a0,s1
    8000282a:	00000097          	auipc	ra,0x0
    8000282e:	acc080e7          	jalr	-1332(ra) # 800022f6 <killed>
    80002832:	c929                	beqz	a0,80002884 <usertrap+0xa6>
    80002834:	a099                	j	8000287a <usertrap+0x9c>
    80002836:	00006517          	auipc	a0,0x6
    8000283a:	aea50513          	addi	a0,a0,-1302 # 80008320 <states.0+0x58>
    8000283e:	ffffe097          	auipc	ra,0xffffe
    80002842:	cfe080e7          	jalr	-770(ra) # 8000053c <panic>
    80002846:	00000097          	auipc	ra,0x0
    8000284a:	ab0080e7          	jalr	-1360(ra) # 800022f6 <killed>
    8000284e:	e921                	bnez	a0,8000289e <usertrap+0xc0>
    80002850:	6cb8                	ld	a4,88(s1)
    80002852:	6f1c                	ld	a5,24(a4)
    80002854:	0791                	addi	a5,a5,4
    80002856:	ef1c                	sd	a5,24(a4)
    80002858:	100027f3          	csrr	a5,sstatus
    8000285c:	0027e793          	ori	a5,a5,2
    80002860:	10079073          	csrw	sstatus,a5
    80002864:	00000097          	auipc	ra,0x0
    80002868:	2d4080e7          	jalr	724(ra) # 80002b38 <syscall>
    8000286c:	8526                	mv	a0,s1
    8000286e:	00000097          	auipc	ra,0x0
    80002872:	a88080e7          	jalr	-1400(ra) # 800022f6 <killed>
    80002876:	c911                	beqz	a0,8000288a <usertrap+0xac>
    80002878:	4901                	li	s2,0
    8000287a:	557d                	li	a0,-1
    8000287c:	00000097          	auipc	ra,0x0
    80002880:	906080e7          	jalr	-1786(ra) # 80002182 <exit>
    80002884:	4789                	li	a5,2
    80002886:	04f90f63          	beq	s2,a5,800028e4 <usertrap+0x106>
    8000288a:	00000097          	auipc	ra,0x0
    8000288e:	dd2080e7          	jalr	-558(ra) # 8000265c <usertrapret>
    80002892:	60e2                	ld	ra,24(sp)
    80002894:	6442                	ld	s0,16(sp)
    80002896:	64a2                	ld	s1,8(sp)
    80002898:	6902                	ld	s2,0(sp)
    8000289a:	6105                	addi	sp,sp,32
    8000289c:	8082                	ret
    8000289e:	557d                	li	a0,-1
    800028a0:	00000097          	auipc	ra,0x0
    800028a4:	8e2080e7          	jalr	-1822(ra) # 80002182 <exit>
    800028a8:	b765                	j	80002850 <usertrap+0x72>
    800028aa:	142025f3          	csrr	a1,scause
    800028ae:	5890                	lw	a2,48(s1)
    800028b0:	00006517          	auipc	a0,0x6
    800028b4:	a9050513          	addi	a0,a0,-1392 # 80008340 <states.0+0x78>
    800028b8:	ffffe097          	auipc	ra,0xffffe
    800028bc:	cce080e7          	jalr	-818(ra) # 80000586 <printf>
    800028c0:	141025f3          	csrr	a1,sepc
    800028c4:	14302673          	csrr	a2,stval
    800028c8:	00006517          	auipc	a0,0x6
    800028cc:	aa850513          	addi	a0,a0,-1368 # 80008370 <states.0+0xa8>
    800028d0:	ffffe097          	auipc	ra,0xffffe
    800028d4:	cb6080e7          	jalr	-842(ra) # 80000586 <printf>
    800028d8:	8526                	mv	a0,s1
    800028da:	00000097          	auipc	ra,0x0
    800028de:	9f0080e7          	jalr	-1552(ra) # 800022ca <setkilled>
    800028e2:	b769                	j	8000286c <usertrap+0x8e>
    800028e4:	fffff097          	auipc	ra,0xfffff
    800028e8:	72e080e7          	jalr	1838(ra) # 80002012 <yield>
    800028ec:	bf79                	j	8000288a <usertrap+0xac>

00000000800028ee <kerneltrap>:
    800028ee:	7179                	addi	sp,sp,-48
    800028f0:	f406                	sd	ra,40(sp)
    800028f2:	f022                	sd	s0,32(sp)
    800028f4:	ec26                	sd	s1,24(sp)
    800028f6:	e84a                	sd	s2,16(sp)
    800028f8:	e44e                	sd	s3,8(sp)
    800028fa:	1800                	addi	s0,sp,48
    800028fc:	14102973          	csrr	s2,sepc
    80002900:	100024f3          	csrr	s1,sstatus
    80002904:	142029f3          	csrr	s3,scause
    80002908:	1004f793          	andi	a5,s1,256
    8000290c:	cb85                	beqz	a5,8000293c <kerneltrap+0x4e>
    8000290e:	100027f3          	csrr	a5,sstatus
    80002912:	8b89                	andi	a5,a5,2
    80002914:	ef85                	bnez	a5,8000294c <kerneltrap+0x5e>
    80002916:	00000097          	auipc	ra,0x0
    8000291a:	e22080e7          	jalr	-478(ra) # 80002738 <devintr>
    8000291e:	cd1d                	beqz	a0,8000295c <kerneltrap+0x6e>
    80002920:	4789                	li	a5,2
    80002922:	06f50a63          	beq	a0,a5,80002996 <kerneltrap+0xa8>
    80002926:	14191073          	csrw	sepc,s2
    8000292a:	10049073          	csrw	sstatus,s1
    8000292e:	70a2                	ld	ra,40(sp)
    80002930:	7402                	ld	s0,32(sp)
    80002932:	64e2                	ld	s1,24(sp)
    80002934:	6942                	ld	s2,16(sp)
    80002936:	69a2                	ld	s3,8(sp)
    80002938:	6145                	addi	sp,sp,48
    8000293a:	8082                	ret
    8000293c:	00006517          	auipc	a0,0x6
    80002940:	a5450513          	addi	a0,a0,-1452 # 80008390 <states.0+0xc8>
    80002944:	ffffe097          	auipc	ra,0xffffe
    80002948:	bf8080e7          	jalr	-1032(ra) # 8000053c <panic>
    8000294c:	00006517          	auipc	a0,0x6
    80002950:	a6c50513          	addi	a0,a0,-1428 # 800083b8 <states.0+0xf0>
    80002954:	ffffe097          	auipc	ra,0xffffe
    80002958:	be8080e7          	jalr	-1048(ra) # 8000053c <panic>
    8000295c:	85ce                	mv	a1,s3
    8000295e:	00006517          	auipc	a0,0x6
    80002962:	a7a50513          	addi	a0,a0,-1414 # 800083d8 <states.0+0x110>
    80002966:	ffffe097          	auipc	ra,0xffffe
    8000296a:	c20080e7          	jalr	-992(ra) # 80000586 <printf>
    8000296e:	141025f3          	csrr	a1,sepc
    80002972:	14302673          	csrr	a2,stval
    80002976:	00006517          	auipc	a0,0x6
    8000297a:	a7250513          	addi	a0,a0,-1422 # 800083e8 <states.0+0x120>
    8000297e:	ffffe097          	auipc	ra,0xffffe
    80002982:	c08080e7          	jalr	-1016(ra) # 80000586 <printf>
    80002986:	00006517          	auipc	a0,0x6
    8000298a:	a7a50513          	addi	a0,a0,-1414 # 80008400 <states.0+0x138>
    8000298e:	ffffe097          	auipc	ra,0xffffe
    80002992:	bae080e7          	jalr	-1106(ra) # 8000053c <panic>
    80002996:	fffff097          	auipc	ra,0xfffff
    8000299a:	010080e7          	jalr	16(ra) # 800019a6 <myproc>
    8000299e:	d541                	beqz	a0,80002926 <kerneltrap+0x38>
    800029a0:	fffff097          	auipc	ra,0xfffff
    800029a4:	006080e7          	jalr	6(ra) # 800019a6 <myproc>
    800029a8:	4d18                	lw	a4,24(a0)
    800029aa:	4791                	li	a5,4
    800029ac:	f6f71de3          	bne	a4,a5,80002926 <kerneltrap+0x38>
    800029b0:	fffff097          	auipc	ra,0xfffff
    800029b4:	662080e7          	jalr	1634(ra) # 80002012 <yield>
    800029b8:	b7bd                	j	80002926 <kerneltrap+0x38>

00000000800029ba <argraw>:
    800029ba:	1101                	addi	sp,sp,-32
    800029bc:	ec06                	sd	ra,24(sp)
    800029be:	e822                	sd	s0,16(sp)
    800029c0:	e426                	sd	s1,8(sp)
    800029c2:	1000                	addi	s0,sp,32
    800029c4:	84aa                	mv	s1,a0
    800029c6:	fffff097          	auipc	ra,0xfffff
    800029ca:	fe0080e7          	jalr	-32(ra) # 800019a6 <myproc>
    800029ce:	4795                	li	a5,5
    800029d0:	0497e163          	bltu	a5,s1,80002a12 <argraw+0x58>
    800029d4:	048a                	slli	s1,s1,0x2
    800029d6:	00006717          	auipc	a4,0x6
    800029da:	a6270713          	addi	a4,a4,-1438 # 80008438 <states.0+0x170>
    800029de:	94ba                	add	s1,s1,a4
    800029e0:	409c                	lw	a5,0(s1)
    800029e2:	97ba                	add	a5,a5,a4
    800029e4:	8782                	jr	a5
    800029e6:	6d3c                	ld	a5,88(a0)
    800029e8:	7ba8                	ld	a0,112(a5)
    800029ea:	60e2                	ld	ra,24(sp)
    800029ec:	6442                	ld	s0,16(sp)
    800029ee:	64a2                	ld	s1,8(sp)
    800029f0:	6105                	addi	sp,sp,32
    800029f2:	8082                	ret
    800029f4:	6d3c                	ld	a5,88(a0)
    800029f6:	7fa8                	ld	a0,120(a5)
    800029f8:	bfcd                	j	800029ea <argraw+0x30>
    800029fa:	6d3c                	ld	a5,88(a0)
    800029fc:	63c8                	ld	a0,128(a5)
    800029fe:	b7f5                	j	800029ea <argraw+0x30>
    80002a00:	6d3c                	ld	a5,88(a0)
    80002a02:	67c8                	ld	a0,136(a5)
    80002a04:	b7dd                	j	800029ea <argraw+0x30>
    80002a06:	6d3c                	ld	a5,88(a0)
    80002a08:	6bc8                	ld	a0,144(a5)
    80002a0a:	b7c5                	j	800029ea <argraw+0x30>
    80002a0c:	6d3c                	ld	a5,88(a0)
    80002a0e:	6fc8                	ld	a0,152(a5)
    80002a10:	bfe9                	j	800029ea <argraw+0x30>
    80002a12:	00006517          	auipc	a0,0x6
    80002a16:	9fe50513          	addi	a0,a0,-1538 # 80008410 <states.0+0x148>
    80002a1a:	ffffe097          	auipc	ra,0xffffe
    80002a1e:	b22080e7          	jalr	-1246(ra) # 8000053c <panic>

0000000080002a22 <fetchaddr>:
    80002a22:	1101                	addi	sp,sp,-32
    80002a24:	ec06                	sd	ra,24(sp)
    80002a26:	e822                	sd	s0,16(sp)
    80002a28:	e426                	sd	s1,8(sp)
    80002a2a:	e04a                	sd	s2,0(sp)
    80002a2c:	1000                	addi	s0,sp,32
    80002a2e:	84aa                	mv	s1,a0
    80002a30:	892e                	mv	s2,a1
    80002a32:	fffff097          	auipc	ra,0xfffff
    80002a36:	f74080e7          	jalr	-140(ra) # 800019a6 <myproc>
    80002a3a:	653c                	ld	a5,72(a0)
    80002a3c:	02f4f863          	bgeu	s1,a5,80002a6c <fetchaddr+0x4a>
    80002a40:	00848713          	addi	a4,s1,8
    80002a44:	02e7e663          	bltu	a5,a4,80002a70 <fetchaddr+0x4e>
    80002a48:	46a1                	li	a3,8
    80002a4a:	8626                	mv	a2,s1
    80002a4c:	85ca                	mv	a1,s2
    80002a4e:	6928                	ld	a0,80(a0)
    80002a50:	fffff097          	auipc	ra,0xfffff
    80002a54:	ca2080e7          	jalr	-862(ra) # 800016f2 <copyin>
    80002a58:	00a03533          	snez	a0,a0
    80002a5c:	40a00533          	neg	a0,a0
    80002a60:	60e2                	ld	ra,24(sp)
    80002a62:	6442                	ld	s0,16(sp)
    80002a64:	64a2                	ld	s1,8(sp)
    80002a66:	6902                	ld	s2,0(sp)
    80002a68:	6105                	addi	sp,sp,32
    80002a6a:	8082                	ret
    80002a6c:	557d                	li	a0,-1
    80002a6e:	bfcd                	j	80002a60 <fetchaddr+0x3e>
    80002a70:	557d                	li	a0,-1
    80002a72:	b7fd                	j	80002a60 <fetchaddr+0x3e>

0000000080002a74 <fetchstr>:
    80002a74:	7179                	addi	sp,sp,-48
    80002a76:	f406                	sd	ra,40(sp)
    80002a78:	f022                	sd	s0,32(sp)
    80002a7a:	ec26                	sd	s1,24(sp)
    80002a7c:	e84a                	sd	s2,16(sp)
    80002a7e:	e44e                	sd	s3,8(sp)
    80002a80:	1800                	addi	s0,sp,48
    80002a82:	892a                	mv	s2,a0
    80002a84:	84ae                	mv	s1,a1
    80002a86:	89b2                	mv	s3,a2
    80002a88:	fffff097          	auipc	ra,0xfffff
    80002a8c:	f1e080e7          	jalr	-226(ra) # 800019a6 <myproc>
    80002a90:	86ce                	mv	a3,s3
    80002a92:	864a                	mv	a2,s2
    80002a94:	85a6                	mv	a1,s1
    80002a96:	6928                	ld	a0,80(a0)
    80002a98:	fffff097          	auipc	ra,0xfffff
    80002a9c:	ce8080e7          	jalr	-792(ra) # 80001780 <copyinstr>
    80002aa0:	00054e63          	bltz	a0,80002abc <fetchstr+0x48>
    80002aa4:	8526                	mv	a0,s1
    80002aa6:	ffffe097          	auipc	ra,0xffffe
    80002aaa:	3a2080e7          	jalr	930(ra) # 80000e48 <strlen>
    80002aae:	70a2                	ld	ra,40(sp)
    80002ab0:	7402                	ld	s0,32(sp)
    80002ab2:	64e2                	ld	s1,24(sp)
    80002ab4:	6942                	ld	s2,16(sp)
    80002ab6:	69a2                	ld	s3,8(sp)
    80002ab8:	6145                	addi	sp,sp,48
    80002aba:	8082                	ret
    80002abc:	557d                	li	a0,-1
    80002abe:	bfc5                	j	80002aae <fetchstr+0x3a>

0000000080002ac0 <argint>:
    80002ac0:	1101                	addi	sp,sp,-32
    80002ac2:	ec06                	sd	ra,24(sp)
    80002ac4:	e822                	sd	s0,16(sp)
    80002ac6:	e426                	sd	s1,8(sp)
    80002ac8:	1000                	addi	s0,sp,32
    80002aca:	84ae                	mv	s1,a1
    80002acc:	00000097          	auipc	ra,0x0
    80002ad0:	eee080e7          	jalr	-274(ra) # 800029ba <argraw>
    80002ad4:	c088                	sw	a0,0(s1)
    80002ad6:	60e2                	ld	ra,24(sp)
    80002ad8:	6442                	ld	s0,16(sp)
    80002ada:	64a2                	ld	s1,8(sp)
    80002adc:	6105                	addi	sp,sp,32
    80002ade:	8082                	ret

0000000080002ae0 <argaddr>:
    80002ae0:	1101                	addi	sp,sp,-32
    80002ae2:	ec06                	sd	ra,24(sp)
    80002ae4:	e822                	sd	s0,16(sp)
    80002ae6:	e426                	sd	s1,8(sp)
    80002ae8:	1000                	addi	s0,sp,32
    80002aea:	84ae                	mv	s1,a1
    80002aec:	00000097          	auipc	ra,0x0
    80002af0:	ece080e7          	jalr	-306(ra) # 800029ba <argraw>
    80002af4:	e088                	sd	a0,0(s1)
    80002af6:	60e2                	ld	ra,24(sp)
    80002af8:	6442                	ld	s0,16(sp)
    80002afa:	64a2                	ld	s1,8(sp)
    80002afc:	6105                	addi	sp,sp,32
    80002afe:	8082                	ret

0000000080002b00 <argstr>:
    80002b00:	7179                	addi	sp,sp,-48
    80002b02:	f406                	sd	ra,40(sp)
    80002b04:	f022                	sd	s0,32(sp)
    80002b06:	ec26                	sd	s1,24(sp)
    80002b08:	e84a                	sd	s2,16(sp)
    80002b0a:	1800                	addi	s0,sp,48
    80002b0c:	84ae                	mv	s1,a1
    80002b0e:	8932                	mv	s2,a2
    80002b10:	fd840593          	addi	a1,s0,-40
    80002b14:	00000097          	auipc	ra,0x0
    80002b18:	fcc080e7          	jalr	-52(ra) # 80002ae0 <argaddr>
    80002b1c:	864a                	mv	a2,s2
    80002b1e:	85a6                	mv	a1,s1
    80002b20:	fd843503          	ld	a0,-40(s0)
    80002b24:	00000097          	auipc	ra,0x0
    80002b28:	f50080e7          	jalr	-176(ra) # 80002a74 <fetchstr>
    80002b2c:	70a2                	ld	ra,40(sp)
    80002b2e:	7402                	ld	s0,32(sp)
    80002b30:	64e2                	ld	s1,24(sp)
    80002b32:	6942                	ld	s2,16(sp)
    80002b34:	6145                	addi	sp,sp,48
    80002b36:	8082                	ret

0000000080002b38 <syscall>:
    80002b38:	1101                	addi	sp,sp,-32
    80002b3a:	ec06                	sd	ra,24(sp)
    80002b3c:	e822                	sd	s0,16(sp)
    80002b3e:	e426                	sd	s1,8(sp)
    80002b40:	e04a                	sd	s2,0(sp)
    80002b42:	1000                	addi	s0,sp,32
    80002b44:	fffff097          	auipc	ra,0xfffff
    80002b48:	e62080e7          	jalr	-414(ra) # 800019a6 <myproc>
    80002b4c:	84aa                	mv	s1,a0
    80002b4e:	05853903          	ld	s2,88(a0)
    80002b52:	0a893783          	ld	a5,168(s2)
    80002b56:	0007869b          	sext.w	a3,a5
    80002b5a:	37fd                	addiw	a5,a5,-1
    80002b5c:	4751                	li	a4,20
    80002b5e:	00f76f63          	bltu	a4,a5,80002b7c <syscall+0x44>
    80002b62:	00369713          	slli	a4,a3,0x3
    80002b66:	00006797          	auipc	a5,0x6
    80002b6a:	8ea78793          	addi	a5,a5,-1814 # 80008450 <syscalls>
    80002b6e:	97ba                	add	a5,a5,a4
    80002b70:	639c                	ld	a5,0(a5)
    80002b72:	c789                	beqz	a5,80002b7c <syscall+0x44>
    80002b74:	9782                	jalr	a5
    80002b76:	06a93823          	sd	a0,112(s2)
    80002b7a:	a839                	j	80002b98 <syscall+0x60>
    80002b7c:	15848613          	addi	a2,s1,344
    80002b80:	588c                	lw	a1,48(s1)
    80002b82:	00006517          	auipc	a0,0x6
    80002b86:	89650513          	addi	a0,a0,-1898 # 80008418 <states.0+0x150>
    80002b8a:	ffffe097          	auipc	ra,0xffffe
    80002b8e:	9fc080e7          	jalr	-1540(ra) # 80000586 <printf>
    80002b92:	6cbc                	ld	a5,88(s1)
    80002b94:	577d                	li	a4,-1
    80002b96:	fbb8                	sd	a4,112(a5)
    80002b98:	60e2                	ld	ra,24(sp)
    80002b9a:	6442                	ld	s0,16(sp)
    80002b9c:	64a2                	ld	s1,8(sp)
    80002b9e:	6902                	ld	s2,0(sp)
    80002ba0:	6105                	addi	sp,sp,32
    80002ba2:	8082                	ret

0000000080002ba4 <sys_exit>:
    80002ba4:	1101                	addi	sp,sp,-32
    80002ba6:	ec06                	sd	ra,24(sp)
    80002ba8:	e822                	sd	s0,16(sp)
    80002baa:	1000                	addi	s0,sp,32
    80002bac:	fec40593          	addi	a1,s0,-20
    80002bb0:	4501                	li	a0,0
    80002bb2:	00000097          	auipc	ra,0x0
    80002bb6:	f0e080e7          	jalr	-242(ra) # 80002ac0 <argint>
    80002bba:	fec42503          	lw	a0,-20(s0)
    80002bbe:	fffff097          	auipc	ra,0xfffff
    80002bc2:	5c4080e7          	jalr	1476(ra) # 80002182 <exit>
    80002bc6:	4501                	li	a0,0
    80002bc8:	60e2                	ld	ra,24(sp)
    80002bca:	6442                	ld	s0,16(sp)
    80002bcc:	6105                	addi	sp,sp,32
    80002bce:	8082                	ret

0000000080002bd0 <sys_getpid>:
    80002bd0:	1141                	addi	sp,sp,-16
    80002bd2:	e406                	sd	ra,8(sp)
    80002bd4:	e022                	sd	s0,0(sp)
    80002bd6:	0800                	addi	s0,sp,16
    80002bd8:	fffff097          	auipc	ra,0xfffff
    80002bdc:	dce080e7          	jalr	-562(ra) # 800019a6 <myproc>
    80002be0:	5908                	lw	a0,48(a0)
    80002be2:	60a2                	ld	ra,8(sp)
    80002be4:	6402                	ld	s0,0(sp)
    80002be6:	0141                	addi	sp,sp,16
    80002be8:	8082                	ret

0000000080002bea <sys_fork>:
    80002bea:	1141                	addi	sp,sp,-16
    80002bec:	e406                	sd	ra,8(sp)
    80002bee:	e022                	sd	s0,0(sp)
    80002bf0:	0800                	addi	s0,sp,16
    80002bf2:	fffff097          	auipc	ra,0xfffff
    80002bf6:	16a080e7          	jalr	362(ra) # 80001d5c <fork>
    80002bfa:	60a2                	ld	ra,8(sp)
    80002bfc:	6402                	ld	s0,0(sp)
    80002bfe:	0141                	addi	sp,sp,16
    80002c00:	8082                	ret

0000000080002c02 <sys_wait>:
    80002c02:	1101                	addi	sp,sp,-32
    80002c04:	ec06                	sd	ra,24(sp)
    80002c06:	e822                	sd	s0,16(sp)
    80002c08:	1000                	addi	s0,sp,32
    80002c0a:	fe840593          	addi	a1,s0,-24
    80002c0e:	4501                	li	a0,0
    80002c10:	00000097          	auipc	ra,0x0
    80002c14:	ed0080e7          	jalr	-304(ra) # 80002ae0 <argaddr>
    80002c18:	fe843503          	ld	a0,-24(s0)
    80002c1c:	fffff097          	auipc	ra,0xfffff
    80002c20:	70c080e7          	jalr	1804(ra) # 80002328 <wait>
    80002c24:	60e2                	ld	ra,24(sp)
    80002c26:	6442                	ld	s0,16(sp)
    80002c28:	6105                	addi	sp,sp,32
    80002c2a:	8082                	ret

0000000080002c2c <sys_sbrk>:
    80002c2c:	7179                	addi	sp,sp,-48
    80002c2e:	f406                	sd	ra,40(sp)
    80002c30:	f022                	sd	s0,32(sp)
    80002c32:	ec26                	sd	s1,24(sp)
    80002c34:	1800                	addi	s0,sp,48
    80002c36:	fdc40593          	addi	a1,s0,-36
    80002c3a:	4501                	li	a0,0
    80002c3c:	00000097          	auipc	ra,0x0
    80002c40:	e84080e7          	jalr	-380(ra) # 80002ac0 <argint>
    80002c44:	fffff097          	auipc	ra,0xfffff
    80002c48:	d62080e7          	jalr	-670(ra) # 800019a6 <myproc>
    80002c4c:	6524                	ld	s1,72(a0)
    80002c4e:	fdc42503          	lw	a0,-36(s0)
    80002c52:	fffff097          	auipc	ra,0xfffff
    80002c56:	0ae080e7          	jalr	174(ra) # 80001d00 <growproc>
    80002c5a:	00054863          	bltz	a0,80002c6a <sys_sbrk+0x3e>
    80002c5e:	8526                	mv	a0,s1
    80002c60:	70a2                	ld	ra,40(sp)
    80002c62:	7402                	ld	s0,32(sp)
    80002c64:	64e2                	ld	s1,24(sp)
    80002c66:	6145                	addi	sp,sp,48
    80002c68:	8082                	ret
    80002c6a:	54fd                	li	s1,-1
    80002c6c:	bfcd                	j	80002c5e <sys_sbrk+0x32>

0000000080002c6e <sys_sleep>:
    80002c6e:	7139                	addi	sp,sp,-64
    80002c70:	fc06                	sd	ra,56(sp)
    80002c72:	f822                	sd	s0,48(sp)
    80002c74:	f426                	sd	s1,40(sp)
    80002c76:	f04a                	sd	s2,32(sp)
    80002c78:	ec4e                	sd	s3,24(sp)
    80002c7a:	0080                	addi	s0,sp,64
    80002c7c:	fcc40593          	addi	a1,s0,-52
    80002c80:	4501                	li	a0,0
    80002c82:	00000097          	auipc	ra,0x0
    80002c86:	e3e080e7          	jalr	-450(ra) # 80002ac0 <argint>
    80002c8a:	00014517          	auipc	a0,0x14
    80002c8e:	cd650513          	addi	a0,a0,-810 # 80016960 <tickslock>
    80002c92:	ffffe097          	auipc	ra,0xffffe
    80002c96:	f40080e7          	jalr	-192(ra) # 80000bd2 <acquire>
    80002c9a:	00006917          	auipc	s2,0x6
    80002c9e:	c2692903          	lw	s2,-986(s2) # 800088c0 <ticks>
    80002ca2:	fcc42783          	lw	a5,-52(s0)
    80002ca6:	cf9d                	beqz	a5,80002ce4 <sys_sleep+0x76>
    80002ca8:	00014997          	auipc	s3,0x14
    80002cac:	cb898993          	addi	s3,s3,-840 # 80016960 <tickslock>
    80002cb0:	00006497          	auipc	s1,0x6
    80002cb4:	c1048493          	addi	s1,s1,-1008 # 800088c0 <ticks>
    80002cb8:	fffff097          	auipc	ra,0xfffff
    80002cbc:	cee080e7          	jalr	-786(ra) # 800019a6 <myproc>
    80002cc0:	fffff097          	auipc	ra,0xfffff
    80002cc4:	636080e7          	jalr	1590(ra) # 800022f6 <killed>
    80002cc8:	ed15                	bnez	a0,80002d04 <sys_sleep+0x96>
    80002cca:	85ce                	mv	a1,s3
    80002ccc:	8526                	mv	a0,s1
    80002cce:	fffff097          	auipc	ra,0xfffff
    80002cd2:	380080e7          	jalr	896(ra) # 8000204e <sleep>
    80002cd6:	409c                	lw	a5,0(s1)
    80002cd8:	412787bb          	subw	a5,a5,s2
    80002cdc:	fcc42703          	lw	a4,-52(s0)
    80002ce0:	fce7ece3          	bltu	a5,a4,80002cb8 <sys_sleep+0x4a>
    80002ce4:	00014517          	auipc	a0,0x14
    80002ce8:	c7c50513          	addi	a0,a0,-900 # 80016960 <tickslock>
    80002cec:	ffffe097          	auipc	ra,0xffffe
    80002cf0:	f9a080e7          	jalr	-102(ra) # 80000c86 <release>
    80002cf4:	4501                	li	a0,0
    80002cf6:	70e2                	ld	ra,56(sp)
    80002cf8:	7442                	ld	s0,48(sp)
    80002cfa:	74a2                	ld	s1,40(sp)
    80002cfc:	7902                	ld	s2,32(sp)
    80002cfe:	69e2                	ld	s3,24(sp)
    80002d00:	6121                	addi	sp,sp,64
    80002d02:	8082                	ret
    80002d04:	00014517          	auipc	a0,0x14
    80002d08:	c5c50513          	addi	a0,a0,-932 # 80016960 <tickslock>
    80002d0c:	ffffe097          	auipc	ra,0xffffe
    80002d10:	f7a080e7          	jalr	-134(ra) # 80000c86 <release>
    80002d14:	557d                	li	a0,-1
    80002d16:	b7c5                	j	80002cf6 <sys_sleep+0x88>

0000000080002d18 <sys_kill>:
    80002d18:	1101                	addi	sp,sp,-32
    80002d1a:	ec06                	sd	ra,24(sp)
    80002d1c:	e822                	sd	s0,16(sp)
    80002d1e:	1000                	addi	s0,sp,32
    80002d20:	fec40593          	addi	a1,s0,-20
    80002d24:	4501                	li	a0,0
    80002d26:	00000097          	auipc	ra,0x0
    80002d2a:	d9a080e7          	jalr	-614(ra) # 80002ac0 <argint>
    80002d2e:	fec42503          	lw	a0,-20(s0)
    80002d32:	fffff097          	auipc	ra,0xfffff
    80002d36:	526080e7          	jalr	1318(ra) # 80002258 <kill>
    80002d3a:	60e2                	ld	ra,24(sp)
    80002d3c:	6442                	ld	s0,16(sp)
    80002d3e:	6105                	addi	sp,sp,32
    80002d40:	8082                	ret

0000000080002d42 <sys_uptime>:
    80002d42:	1101                	addi	sp,sp,-32
    80002d44:	ec06                	sd	ra,24(sp)
    80002d46:	e822                	sd	s0,16(sp)
    80002d48:	e426                	sd	s1,8(sp)
    80002d4a:	1000                	addi	s0,sp,32
    80002d4c:	00014517          	auipc	a0,0x14
    80002d50:	c1450513          	addi	a0,a0,-1004 # 80016960 <tickslock>
    80002d54:	ffffe097          	auipc	ra,0xffffe
    80002d58:	e7e080e7          	jalr	-386(ra) # 80000bd2 <acquire>
    80002d5c:	00006497          	auipc	s1,0x6
    80002d60:	b644a483          	lw	s1,-1180(s1) # 800088c0 <ticks>
    80002d64:	00014517          	auipc	a0,0x14
    80002d68:	bfc50513          	addi	a0,a0,-1028 # 80016960 <tickslock>
    80002d6c:	ffffe097          	auipc	ra,0xffffe
    80002d70:	f1a080e7          	jalr	-230(ra) # 80000c86 <release>
    80002d74:	02049513          	slli	a0,s1,0x20
    80002d78:	9101                	srli	a0,a0,0x20
    80002d7a:	60e2                	ld	ra,24(sp)
    80002d7c:	6442                	ld	s0,16(sp)
    80002d7e:	64a2                	ld	s1,8(sp)
    80002d80:	6105                	addi	sp,sp,32
    80002d82:	8082                	ret

0000000080002d84 <binit>:
    80002d84:	7179                	addi	sp,sp,-48
    80002d86:	f406                	sd	ra,40(sp)
    80002d88:	f022                	sd	s0,32(sp)
    80002d8a:	ec26                	sd	s1,24(sp)
    80002d8c:	e84a                	sd	s2,16(sp)
    80002d8e:	e44e                	sd	s3,8(sp)
    80002d90:	e052                	sd	s4,0(sp)
    80002d92:	1800                	addi	s0,sp,48
    80002d94:	00005597          	auipc	a1,0x5
    80002d98:	76c58593          	addi	a1,a1,1900 # 80008500 <syscalls+0xb0>
    80002d9c:	00014517          	auipc	a0,0x14
    80002da0:	bdc50513          	addi	a0,a0,-1060 # 80016978 <bcache>
    80002da4:	ffffe097          	auipc	ra,0xffffe
    80002da8:	d9e080e7          	jalr	-610(ra) # 80000b42 <initlock>
    80002dac:	0001c797          	auipc	a5,0x1c
    80002db0:	bcc78793          	addi	a5,a5,-1076 # 8001e978 <bcache+0x8000>
    80002db4:	0001c717          	auipc	a4,0x1c
    80002db8:	e2c70713          	addi	a4,a4,-468 # 8001ebe0 <bcache+0x8268>
    80002dbc:	2ae7b823          	sd	a4,688(a5)
    80002dc0:	2ae7bc23          	sd	a4,696(a5)
    80002dc4:	00014497          	auipc	s1,0x14
    80002dc8:	bcc48493          	addi	s1,s1,-1076 # 80016990 <bcache+0x18>
    80002dcc:	893e                	mv	s2,a5
    80002dce:	89ba                	mv	s3,a4
    80002dd0:	00005a17          	auipc	s4,0x5
    80002dd4:	738a0a13          	addi	s4,s4,1848 # 80008508 <syscalls+0xb8>
    80002dd8:	2b893783          	ld	a5,696(s2)
    80002ddc:	e8bc                	sd	a5,80(s1)
    80002dde:	0534b423          	sd	s3,72(s1)
    80002de2:	85d2                	mv	a1,s4
    80002de4:	01048513          	addi	a0,s1,16
    80002de8:	00001097          	auipc	ra,0x1
    80002dec:	496080e7          	jalr	1174(ra) # 8000427e <initsleeplock>
    80002df0:	2b893783          	ld	a5,696(s2)
    80002df4:	e7a4                	sd	s1,72(a5)
    80002df6:	2a993c23          	sd	s1,696(s2)
    80002dfa:	45848493          	addi	s1,s1,1112
    80002dfe:	fd349de3          	bne	s1,s3,80002dd8 <binit+0x54>
    80002e02:	70a2                	ld	ra,40(sp)
    80002e04:	7402                	ld	s0,32(sp)
    80002e06:	64e2                	ld	s1,24(sp)
    80002e08:	6942                	ld	s2,16(sp)
    80002e0a:	69a2                	ld	s3,8(sp)
    80002e0c:	6a02                	ld	s4,0(sp)
    80002e0e:	6145                	addi	sp,sp,48
    80002e10:	8082                	ret

0000000080002e12 <bread>:
    80002e12:	7179                	addi	sp,sp,-48
    80002e14:	f406                	sd	ra,40(sp)
    80002e16:	f022                	sd	s0,32(sp)
    80002e18:	ec26                	sd	s1,24(sp)
    80002e1a:	e84a                	sd	s2,16(sp)
    80002e1c:	e44e                	sd	s3,8(sp)
    80002e1e:	1800                	addi	s0,sp,48
    80002e20:	892a                	mv	s2,a0
    80002e22:	89ae                	mv	s3,a1
    80002e24:	00014517          	auipc	a0,0x14
    80002e28:	b5450513          	addi	a0,a0,-1196 # 80016978 <bcache>
    80002e2c:	ffffe097          	auipc	ra,0xffffe
    80002e30:	da6080e7          	jalr	-602(ra) # 80000bd2 <acquire>
    80002e34:	0001c497          	auipc	s1,0x1c
    80002e38:	dfc4b483          	ld	s1,-516(s1) # 8001ec30 <bcache+0x82b8>
    80002e3c:	0001c797          	auipc	a5,0x1c
    80002e40:	da478793          	addi	a5,a5,-604 # 8001ebe0 <bcache+0x8268>
    80002e44:	02f48f63          	beq	s1,a5,80002e82 <bread+0x70>
    80002e48:	873e                	mv	a4,a5
    80002e4a:	a021                	j	80002e52 <bread+0x40>
    80002e4c:	68a4                	ld	s1,80(s1)
    80002e4e:	02e48a63          	beq	s1,a4,80002e82 <bread+0x70>
    80002e52:	449c                	lw	a5,8(s1)
    80002e54:	ff279ce3          	bne	a5,s2,80002e4c <bread+0x3a>
    80002e58:	44dc                	lw	a5,12(s1)
    80002e5a:	ff3799e3          	bne	a5,s3,80002e4c <bread+0x3a>
    80002e5e:	40bc                	lw	a5,64(s1)
    80002e60:	2785                	addiw	a5,a5,1
    80002e62:	c0bc                	sw	a5,64(s1)
    80002e64:	00014517          	auipc	a0,0x14
    80002e68:	b1450513          	addi	a0,a0,-1260 # 80016978 <bcache>
    80002e6c:	ffffe097          	auipc	ra,0xffffe
    80002e70:	e1a080e7          	jalr	-486(ra) # 80000c86 <release>
    80002e74:	01048513          	addi	a0,s1,16
    80002e78:	00001097          	auipc	ra,0x1
    80002e7c:	440080e7          	jalr	1088(ra) # 800042b8 <acquiresleep>
    80002e80:	a8b9                	j	80002ede <bread+0xcc>
    80002e82:	0001c497          	auipc	s1,0x1c
    80002e86:	da64b483          	ld	s1,-602(s1) # 8001ec28 <bcache+0x82b0>
    80002e8a:	0001c797          	auipc	a5,0x1c
    80002e8e:	d5678793          	addi	a5,a5,-682 # 8001ebe0 <bcache+0x8268>
    80002e92:	00f48863          	beq	s1,a5,80002ea2 <bread+0x90>
    80002e96:	873e                	mv	a4,a5
    80002e98:	40bc                	lw	a5,64(s1)
    80002e9a:	cf81                	beqz	a5,80002eb2 <bread+0xa0>
    80002e9c:	64a4                	ld	s1,72(s1)
    80002e9e:	fee49de3          	bne	s1,a4,80002e98 <bread+0x86>
    80002ea2:	00005517          	auipc	a0,0x5
    80002ea6:	66e50513          	addi	a0,a0,1646 # 80008510 <syscalls+0xc0>
    80002eaa:	ffffd097          	auipc	ra,0xffffd
    80002eae:	692080e7          	jalr	1682(ra) # 8000053c <panic>
    80002eb2:	0124a423          	sw	s2,8(s1)
    80002eb6:	0134a623          	sw	s3,12(s1)
    80002eba:	0004a023          	sw	zero,0(s1)
    80002ebe:	4785                	li	a5,1
    80002ec0:	c0bc                	sw	a5,64(s1)
    80002ec2:	00014517          	auipc	a0,0x14
    80002ec6:	ab650513          	addi	a0,a0,-1354 # 80016978 <bcache>
    80002eca:	ffffe097          	auipc	ra,0xffffe
    80002ece:	dbc080e7          	jalr	-580(ra) # 80000c86 <release>
    80002ed2:	01048513          	addi	a0,s1,16
    80002ed6:	00001097          	auipc	ra,0x1
    80002eda:	3e2080e7          	jalr	994(ra) # 800042b8 <acquiresleep>
    80002ede:	409c                	lw	a5,0(s1)
    80002ee0:	cb89                	beqz	a5,80002ef2 <bread+0xe0>
    80002ee2:	8526                	mv	a0,s1
    80002ee4:	70a2                	ld	ra,40(sp)
    80002ee6:	7402                	ld	s0,32(sp)
    80002ee8:	64e2                	ld	s1,24(sp)
    80002eea:	6942                	ld	s2,16(sp)
    80002eec:	69a2                	ld	s3,8(sp)
    80002eee:	6145                	addi	sp,sp,48
    80002ef0:	8082                	ret
    80002ef2:	4581                	li	a1,0
    80002ef4:	8526                	mv	a0,s1
    80002ef6:	00003097          	auipc	ra,0x3
    80002efa:	f7c080e7          	jalr	-132(ra) # 80005e72 <virtio_disk_rw>
    80002efe:	4785                	li	a5,1
    80002f00:	c09c                	sw	a5,0(s1)
    80002f02:	b7c5                	j	80002ee2 <bread+0xd0>

0000000080002f04 <bwrite>:
    80002f04:	1101                	addi	sp,sp,-32
    80002f06:	ec06                	sd	ra,24(sp)
    80002f08:	e822                	sd	s0,16(sp)
    80002f0a:	e426                	sd	s1,8(sp)
    80002f0c:	1000                	addi	s0,sp,32
    80002f0e:	84aa                	mv	s1,a0
    80002f10:	0541                	addi	a0,a0,16
    80002f12:	00001097          	auipc	ra,0x1
    80002f16:	440080e7          	jalr	1088(ra) # 80004352 <holdingsleep>
    80002f1a:	cd01                	beqz	a0,80002f32 <bwrite+0x2e>
    80002f1c:	4585                	li	a1,1
    80002f1e:	8526                	mv	a0,s1
    80002f20:	00003097          	auipc	ra,0x3
    80002f24:	f52080e7          	jalr	-174(ra) # 80005e72 <virtio_disk_rw>
    80002f28:	60e2                	ld	ra,24(sp)
    80002f2a:	6442                	ld	s0,16(sp)
    80002f2c:	64a2                	ld	s1,8(sp)
    80002f2e:	6105                	addi	sp,sp,32
    80002f30:	8082                	ret
    80002f32:	00005517          	auipc	a0,0x5
    80002f36:	5f650513          	addi	a0,a0,1526 # 80008528 <syscalls+0xd8>
    80002f3a:	ffffd097          	auipc	ra,0xffffd
    80002f3e:	602080e7          	jalr	1538(ra) # 8000053c <panic>

0000000080002f42 <brelse>:
    80002f42:	1101                	addi	sp,sp,-32
    80002f44:	ec06                	sd	ra,24(sp)
    80002f46:	e822                	sd	s0,16(sp)
    80002f48:	e426                	sd	s1,8(sp)
    80002f4a:	e04a                	sd	s2,0(sp)
    80002f4c:	1000                	addi	s0,sp,32
    80002f4e:	84aa                	mv	s1,a0
    80002f50:	01050913          	addi	s2,a0,16
    80002f54:	854a                	mv	a0,s2
    80002f56:	00001097          	auipc	ra,0x1
    80002f5a:	3fc080e7          	jalr	1020(ra) # 80004352 <holdingsleep>
    80002f5e:	c925                	beqz	a0,80002fce <brelse+0x8c>
    80002f60:	854a                	mv	a0,s2
    80002f62:	00001097          	auipc	ra,0x1
    80002f66:	3ac080e7          	jalr	940(ra) # 8000430e <releasesleep>
    80002f6a:	00014517          	auipc	a0,0x14
    80002f6e:	a0e50513          	addi	a0,a0,-1522 # 80016978 <bcache>
    80002f72:	ffffe097          	auipc	ra,0xffffe
    80002f76:	c60080e7          	jalr	-928(ra) # 80000bd2 <acquire>
    80002f7a:	40bc                	lw	a5,64(s1)
    80002f7c:	37fd                	addiw	a5,a5,-1
    80002f7e:	0007871b          	sext.w	a4,a5
    80002f82:	c0bc                	sw	a5,64(s1)
    80002f84:	e71d                	bnez	a4,80002fb2 <brelse+0x70>
    80002f86:	68b8                	ld	a4,80(s1)
    80002f88:	64bc                	ld	a5,72(s1)
    80002f8a:	e73c                	sd	a5,72(a4)
    80002f8c:	68b8                	ld	a4,80(s1)
    80002f8e:	ebb8                	sd	a4,80(a5)
    80002f90:	0001c797          	auipc	a5,0x1c
    80002f94:	9e878793          	addi	a5,a5,-1560 # 8001e978 <bcache+0x8000>
    80002f98:	2b87b703          	ld	a4,696(a5)
    80002f9c:	e8b8                	sd	a4,80(s1)
    80002f9e:	0001c717          	auipc	a4,0x1c
    80002fa2:	c4270713          	addi	a4,a4,-958 # 8001ebe0 <bcache+0x8268>
    80002fa6:	e4b8                	sd	a4,72(s1)
    80002fa8:	2b87b703          	ld	a4,696(a5)
    80002fac:	e724                	sd	s1,72(a4)
    80002fae:	2a97bc23          	sd	s1,696(a5)
    80002fb2:	00014517          	auipc	a0,0x14
    80002fb6:	9c650513          	addi	a0,a0,-1594 # 80016978 <bcache>
    80002fba:	ffffe097          	auipc	ra,0xffffe
    80002fbe:	ccc080e7          	jalr	-820(ra) # 80000c86 <release>
    80002fc2:	60e2                	ld	ra,24(sp)
    80002fc4:	6442                	ld	s0,16(sp)
    80002fc6:	64a2                	ld	s1,8(sp)
    80002fc8:	6902                	ld	s2,0(sp)
    80002fca:	6105                	addi	sp,sp,32
    80002fcc:	8082                	ret
    80002fce:	00005517          	auipc	a0,0x5
    80002fd2:	56250513          	addi	a0,a0,1378 # 80008530 <syscalls+0xe0>
    80002fd6:	ffffd097          	auipc	ra,0xffffd
    80002fda:	566080e7          	jalr	1382(ra) # 8000053c <panic>

0000000080002fde <bpin>:
    80002fde:	1101                	addi	sp,sp,-32
    80002fe0:	ec06                	sd	ra,24(sp)
    80002fe2:	e822                	sd	s0,16(sp)
    80002fe4:	e426                	sd	s1,8(sp)
    80002fe6:	1000                	addi	s0,sp,32
    80002fe8:	84aa                	mv	s1,a0
    80002fea:	00014517          	auipc	a0,0x14
    80002fee:	98e50513          	addi	a0,a0,-1650 # 80016978 <bcache>
    80002ff2:	ffffe097          	auipc	ra,0xffffe
    80002ff6:	be0080e7          	jalr	-1056(ra) # 80000bd2 <acquire>
    80002ffa:	40bc                	lw	a5,64(s1)
    80002ffc:	2785                	addiw	a5,a5,1
    80002ffe:	c0bc                	sw	a5,64(s1)
    80003000:	00014517          	auipc	a0,0x14
    80003004:	97850513          	addi	a0,a0,-1672 # 80016978 <bcache>
    80003008:	ffffe097          	auipc	ra,0xffffe
    8000300c:	c7e080e7          	jalr	-898(ra) # 80000c86 <release>
    80003010:	60e2                	ld	ra,24(sp)
    80003012:	6442                	ld	s0,16(sp)
    80003014:	64a2                	ld	s1,8(sp)
    80003016:	6105                	addi	sp,sp,32
    80003018:	8082                	ret

000000008000301a <bunpin>:
    8000301a:	1101                	addi	sp,sp,-32
    8000301c:	ec06                	sd	ra,24(sp)
    8000301e:	e822                	sd	s0,16(sp)
    80003020:	e426                	sd	s1,8(sp)
    80003022:	1000                	addi	s0,sp,32
    80003024:	84aa                	mv	s1,a0
    80003026:	00014517          	auipc	a0,0x14
    8000302a:	95250513          	addi	a0,a0,-1710 # 80016978 <bcache>
    8000302e:	ffffe097          	auipc	ra,0xffffe
    80003032:	ba4080e7          	jalr	-1116(ra) # 80000bd2 <acquire>
    80003036:	40bc                	lw	a5,64(s1)
    80003038:	37fd                	addiw	a5,a5,-1
    8000303a:	c0bc                	sw	a5,64(s1)
    8000303c:	00014517          	auipc	a0,0x14
    80003040:	93c50513          	addi	a0,a0,-1732 # 80016978 <bcache>
    80003044:	ffffe097          	auipc	ra,0xffffe
    80003048:	c42080e7          	jalr	-958(ra) # 80000c86 <release>
    8000304c:	60e2                	ld	ra,24(sp)
    8000304e:	6442                	ld	s0,16(sp)
    80003050:	64a2                	ld	s1,8(sp)
    80003052:	6105                	addi	sp,sp,32
    80003054:	8082                	ret

0000000080003056 <bfree>:
    80003056:	1101                	addi	sp,sp,-32
    80003058:	ec06                	sd	ra,24(sp)
    8000305a:	e822                	sd	s0,16(sp)
    8000305c:	e426                	sd	s1,8(sp)
    8000305e:	e04a                	sd	s2,0(sp)
    80003060:	1000                	addi	s0,sp,32
    80003062:	84ae                	mv	s1,a1
    80003064:	00d5d59b          	srliw	a1,a1,0xd
    80003068:	0001c797          	auipc	a5,0x1c
    8000306c:	fec7a783          	lw	a5,-20(a5) # 8001f054 <sb+0x1c>
    80003070:	9dbd                	addw	a1,a1,a5
    80003072:	00000097          	auipc	ra,0x0
    80003076:	da0080e7          	jalr	-608(ra) # 80002e12 <bread>
    8000307a:	0074f713          	andi	a4,s1,7
    8000307e:	4785                	li	a5,1
    80003080:	00e797bb          	sllw	a5,a5,a4
    80003084:	14ce                	slli	s1,s1,0x33
    80003086:	90d9                	srli	s1,s1,0x36
    80003088:	00950733          	add	a4,a0,s1
    8000308c:	05874703          	lbu	a4,88(a4)
    80003090:	00e7f6b3          	and	a3,a5,a4
    80003094:	c69d                	beqz	a3,800030c2 <bfree+0x6c>
    80003096:	892a                	mv	s2,a0
    80003098:	94aa                	add	s1,s1,a0
    8000309a:	fff7c793          	not	a5,a5
    8000309e:	8f7d                	and	a4,a4,a5
    800030a0:	04e48c23          	sb	a4,88(s1)
    800030a4:	00001097          	auipc	ra,0x1
    800030a8:	0f6080e7          	jalr	246(ra) # 8000419a <log_write>
    800030ac:	854a                	mv	a0,s2
    800030ae:	00000097          	auipc	ra,0x0
    800030b2:	e94080e7          	jalr	-364(ra) # 80002f42 <brelse>
    800030b6:	60e2                	ld	ra,24(sp)
    800030b8:	6442                	ld	s0,16(sp)
    800030ba:	64a2                	ld	s1,8(sp)
    800030bc:	6902                	ld	s2,0(sp)
    800030be:	6105                	addi	sp,sp,32
    800030c0:	8082                	ret
    800030c2:	00005517          	auipc	a0,0x5
    800030c6:	47650513          	addi	a0,a0,1142 # 80008538 <syscalls+0xe8>
    800030ca:	ffffd097          	auipc	ra,0xffffd
    800030ce:	472080e7          	jalr	1138(ra) # 8000053c <panic>

00000000800030d2 <balloc>:
    800030d2:	711d                	addi	sp,sp,-96
    800030d4:	ec86                	sd	ra,88(sp)
    800030d6:	e8a2                	sd	s0,80(sp)
    800030d8:	e4a6                	sd	s1,72(sp)
    800030da:	e0ca                	sd	s2,64(sp)
    800030dc:	fc4e                	sd	s3,56(sp)
    800030de:	f852                	sd	s4,48(sp)
    800030e0:	f456                	sd	s5,40(sp)
    800030e2:	f05a                	sd	s6,32(sp)
    800030e4:	ec5e                	sd	s7,24(sp)
    800030e6:	e862                	sd	s8,16(sp)
    800030e8:	e466                	sd	s9,8(sp)
    800030ea:	1080                	addi	s0,sp,96
    800030ec:	0001c797          	auipc	a5,0x1c
    800030f0:	f507a783          	lw	a5,-176(a5) # 8001f03c <sb+0x4>
    800030f4:	cff5                	beqz	a5,800031f0 <balloc+0x11e>
    800030f6:	8baa                	mv	s7,a0
    800030f8:	4a81                	li	s5,0
    800030fa:	0001cb17          	auipc	s6,0x1c
    800030fe:	f3eb0b13          	addi	s6,s6,-194 # 8001f038 <sb>
    80003102:	4c01                	li	s8,0
    80003104:	4985                	li	s3,1
    80003106:	6a09                	lui	s4,0x2
    80003108:	6c89                	lui	s9,0x2
    8000310a:	a061                	j	80003192 <balloc+0xc0>
    8000310c:	97ca                	add	a5,a5,s2
    8000310e:	8e55                	or	a2,a2,a3
    80003110:	04c78c23          	sb	a2,88(a5)
    80003114:	854a                	mv	a0,s2
    80003116:	00001097          	auipc	ra,0x1
    8000311a:	084080e7          	jalr	132(ra) # 8000419a <log_write>
    8000311e:	854a                	mv	a0,s2
    80003120:	00000097          	auipc	ra,0x0
    80003124:	e22080e7          	jalr	-478(ra) # 80002f42 <brelse>
    80003128:	85a6                	mv	a1,s1
    8000312a:	855e                	mv	a0,s7
    8000312c:	00000097          	auipc	ra,0x0
    80003130:	ce6080e7          	jalr	-794(ra) # 80002e12 <bread>
    80003134:	892a                	mv	s2,a0
    80003136:	40000613          	li	a2,1024
    8000313a:	4581                	li	a1,0
    8000313c:	05850513          	addi	a0,a0,88
    80003140:	ffffe097          	auipc	ra,0xffffe
    80003144:	b8e080e7          	jalr	-1138(ra) # 80000cce <memset>
    80003148:	854a                	mv	a0,s2
    8000314a:	00001097          	auipc	ra,0x1
    8000314e:	050080e7          	jalr	80(ra) # 8000419a <log_write>
    80003152:	854a                	mv	a0,s2
    80003154:	00000097          	auipc	ra,0x0
    80003158:	dee080e7          	jalr	-530(ra) # 80002f42 <brelse>
    8000315c:	8526                	mv	a0,s1
    8000315e:	60e6                	ld	ra,88(sp)
    80003160:	6446                	ld	s0,80(sp)
    80003162:	64a6                	ld	s1,72(sp)
    80003164:	6906                	ld	s2,64(sp)
    80003166:	79e2                	ld	s3,56(sp)
    80003168:	7a42                	ld	s4,48(sp)
    8000316a:	7aa2                	ld	s5,40(sp)
    8000316c:	7b02                	ld	s6,32(sp)
    8000316e:	6be2                	ld	s7,24(sp)
    80003170:	6c42                	ld	s8,16(sp)
    80003172:	6ca2                	ld	s9,8(sp)
    80003174:	6125                	addi	sp,sp,96
    80003176:	8082                	ret
    80003178:	854a                	mv	a0,s2
    8000317a:	00000097          	auipc	ra,0x0
    8000317e:	dc8080e7          	jalr	-568(ra) # 80002f42 <brelse>
    80003182:	015c87bb          	addw	a5,s9,s5
    80003186:	00078a9b          	sext.w	s5,a5
    8000318a:	004b2703          	lw	a4,4(s6)
    8000318e:	06eaf163          	bgeu	s5,a4,800031f0 <balloc+0x11e>
    80003192:	41fad79b          	sraiw	a5,s5,0x1f
    80003196:	0137d79b          	srliw	a5,a5,0x13
    8000319a:	015787bb          	addw	a5,a5,s5
    8000319e:	40d7d79b          	sraiw	a5,a5,0xd
    800031a2:	01cb2583          	lw	a1,28(s6)
    800031a6:	9dbd                	addw	a1,a1,a5
    800031a8:	855e                	mv	a0,s7
    800031aa:	00000097          	auipc	ra,0x0
    800031ae:	c68080e7          	jalr	-920(ra) # 80002e12 <bread>
    800031b2:	892a                	mv	s2,a0
    800031b4:	004b2503          	lw	a0,4(s6)
    800031b8:	000a849b          	sext.w	s1,s5
    800031bc:	8762                	mv	a4,s8
    800031be:	faa4fde3          	bgeu	s1,a0,80003178 <balloc+0xa6>
    800031c2:	00777693          	andi	a3,a4,7
    800031c6:	00d996bb          	sllw	a3,s3,a3
    800031ca:	41f7579b          	sraiw	a5,a4,0x1f
    800031ce:	01d7d79b          	srliw	a5,a5,0x1d
    800031d2:	9fb9                	addw	a5,a5,a4
    800031d4:	4037d79b          	sraiw	a5,a5,0x3
    800031d8:	00f90633          	add	a2,s2,a5
    800031dc:	05864603          	lbu	a2,88(a2)
    800031e0:	00c6f5b3          	and	a1,a3,a2
    800031e4:	d585                	beqz	a1,8000310c <balloc+0x3a>
    800031e6:	2705                	addiw	a4,a4,1
    800031e8:	2485                	addiw	s1,s1,1
    800031ea:	fd471ae3          	bne	a4,s4,800031be <balloc+0xec>
    800031ee:	b769                	j	80003178 <balloc+0xa6>
    800031f0:	00005517          	auipc	a0,0x5
    800031f4:	36050513          	addi	a0,a0,864 # 80008550 <syscalls+0x100>
    800031f8:	ffffd097          	auipc	ra,0xffffd
    800031fc:	38e080e7          	jalr	910(ra) # 80000586 <printf>
    80003200:	4481                	li	s1,0
    80003202:	bfa9                	j	8000315c <balloc+0x8a>

0000000080003204 <bmap>:
    80003204:	7179                	addi	sp,sp,-48
    80003206:	f406                	sd	ra,40(sp)
    80003208:	f022                	sd	s0,32(sp)
    8000320a:	ec26                	sd	s1,24(sp)
    8000320c:	e84a                	sd	s2,16(sp)
    8000320e:	e44e                	sd	s3,8(sp)
    80003210:	e052                	sd	s4,0(sp)
    80003212:	1800                	addi	s0,sp,48
    80003214:	89aa                	mv	s3,a0
    80003216:	47ad                	li	a5,11
    80003218:	02b7e863          	bltu	a5,a1,80003248 <bmap+0x44>
    8000321c:	02059793          	slli	a5,a1,0x20
    80003220:	01e7d593          	srli	a1,a5,0x1e
    80003224:	00b504b3          	add	s1,a0,a1
    80003228:	0504a903          	lw	s2,80(s1)
    8000322c:	06091e63          	bnez	s2,800032a8 <bmap+0xa4>
    80003230:	4108                	lw	a0,0(a0)
    80003232:	00000097          	auipc	ra,0x0
    80003236:	ea0080e7          	jalr	-352(ra) # 800030d2 <balloc>
    8000323a:	0005091b          	sext.w	s2,a0
    8000323e:	06090563          	beqz	s2,800032a8 <bmap+0xa4>
    80003242:	0524a823          	sw	s2,80(s1)
    80003246:	a08d                	j	800032a8 <bmap+0xa4>
    80003248:	ff45849b          	addiw	s1,a1,-12
    8000324c:	0004871b          	sext.w	a4,s1
    80003250:	0ff00793          	li	a5,255
    80003254:	08e7e563          	bltu	a5,a4,800032de <bmap+0xda>
    80003258:	08052903          	lw	s2,128(a0)
    8000325c:	00091d63          	bnez	s2,80003276 <bmap+0x72>
    80003260:	4108                	lw	a0,0(a0)
    80003262:	00000097          	auipc	ra,0x0
    80003266:	e70080e7          	jalr	-400(ra) # 800030d2 <balloc>
    8000326a:	0005091b          	sext.w	s2,a0
    8000326e:	02090d63          	beqz	s2,800032a8 <bmap+0xa4>
    80003272:	0929a023          	sw	s2,128(s3)
    80003276:	85ca                	mv	a1,s2
    80003278:	0009a503          	lw	a0,0(s3)
    8000327c:	00000097          	auipc	ra,0x0
    80003280:	b96080e7          	jalr	-1130(ra) # 80002e12 <bread>
    80003284:	8a2a                	mv	s4,a0
    80003286:	05850793          	addi	a5,a0,88
    8000328a:	02049713          	slli	a4,s1,0x20
    8000328e:	01e75593          	srli	a1,a4,0x1e
    80003292:	00b784b3          	add	s1,a5,a1
    80003296:	0004a903          	lw	s2,0(s1)
    8000329a:	02090063          	beqz	s2,800032ba <bmap+0xb6>
    8000329e:	8552                	mv	a0,s4
    800032a0:	00000097          	auipc	ra,0x0
    800032a4:	ca2080e7          	jalr	-862(ra) # 80002f42 <brelse>
    800032a8:	854a                	mv	a0,s2
    800032aa:	70a2                	ld	ra,40(sp)
    800032ac:	7402                	ld	s0,32(sp)
    800032ae:	64e2                	ld	s1,24(sp)
    800032b0:	6942                	ld	s2,16(sp)
    800032b2:	69a2                	ld	s3,8(sp)
    800032b4:	6a02                	ld	s4,0(sp)
    800032b6:	6145                	addi	sp,sp,48
    800032b8:	8082                	ret
    800032ba:	0009a503          	lw	a0,0(s3)
    800032be:	00000097          	auipc	ra,0x0
    800032c2:	e14080e7          	jalr	-492(ra) # 800030d2 <balloc>
    800032c6:	0005091b          	sext.w	s2,a0
    800032ca:	fc090ae3          	beqz	s2,8000329e <bmap+0x9a>
    800032ce:	0124a023          	sw	s2,0(s1)
    800032d2:	8552                	mv	a0,s4
    800032d4:	00001097          	auipc	ra,0x1
    800032d8:	ec6080e7          	jalr	-314(ra) # 8000419a <log_write>
    800032dc:	b7c9                	j	8000329e <bmap+0x9a>
    800032de:	00005517          	auipc	a0,0x5
    800032e2:	28a50513          	addi	a0,a0,650 # 80008568 <syscalls+0x118>
    800032e6:	ffffd097          	auipc	ra,0xffffd
    800032ea:	256080e7          	jalr	598(ra) # 8000053c <panic>

00000000800032ee <iget>:
    800032ee:	7179                	addi	sp,sp,-48
    800032f0:	f406                	sd	ra,40(sp)
    800032f2:	f022                	sd	s0,32(sp)
    800032f4:	ec26                	sd	s1,24(sp)
    800032f6:	e84a                	sd	s2,16(sp)
    800032f8:	e44e                	sd	s3,8(sp)
    800032fa:	e052                	sd	s4,0(sp)
    800032fc:	1800                	addi	s0,sp,48
    800032fe:	89aa                	mv	s3,a0
    80003300:	8a2e                	mv	s4,a1
    80003302:	0001c517          	auipc	a0,0x1c
    80003306:	d5650513          	addi	a0,a0,-682 # 8001f058 <itable>
    8000330a:	ffffe097          	auipc	ra,0xffffe
    8000330e:	8c8080e7          	jalr	-1848(ra) # 80000bd2 <acquire>
    80003312:	4901                	li	s2,0
    80003314:	0001c497          	auipc	s1,0x1c
    80003318:	d5c48493          	addi	s1,s1,-676 # 8001f070 <itable+0x18>
    8000331c:	0001d697          	auipc	a3,0x1d
    80003320:	7e468693          	addi	a3,a3,2020 # 80020b00 <log>
    80003324:	a039                	j	80003332 <iget+0x44>
    80003326:	02090b63          	beqz	s2,8000335c <iget+0x6e>
    8000332a:	08848493          	addi	s1,s1,136
    8000332e:	02d48a63          	beq	s1,a3,80003362 <iget+0x74>
    80003332:	449c                	lw	a5,8(s1)
    80003334:	fef059e3          	blez	a5,80003326 <iget+0x38>
    80003338:	4098                	lw	a4,0(s1)
    8000333a:	ff3716e3          	bne	a4,s3,80003326 <iget+0x38>
    8000333e:	40d8                	lw	a4,4(s1)
    80003340:	ff4713e3          	bne	a4,s4,80003326 <iget+0x38>
    80003344:	2785                	addiw	a5,a5,1
    80003346:	c49c                	sw	a5,8(s1)
    80003348:	0001c517          	auipc	a0,0x1c
    8000334c:	d1050513          	addi	a0,a0,-752 # 8001f058 <itable>
    80003350:	ffffe097          	auipc	ra,0xffffe
    80003354:	936080e7          	jalr	-1738(ra) # 80000c86 <release>
    80003358:	8926                	mv	s2,s1
    8000335a:	a03d                	j	80003388 <iget+0x9a>
    8000335c:	f7f9                	bnez	a5,8000332a <iget+0x3c>
    8000335e:	8926                	mv	s2,s1
    80003360:	b7e9                	j	8000332a <iget+0x3c>
    80003362:	02090c63          	beqz	s2,8000339a <iget+0xac>
    80003366:	01392023          	sw	s3,0(s2)
    8000336a:	01492223          	sw	s4,4(s2)
    8000336e:	4785                	li	a5,1
    80003370:	00f92423          	sw	a5,8(s2)
    80003374:	04092023          	sw	zero,64(s2)
    80003378:	0001c517          	auipc	a0,0x1c
    8000337c:	ce050513          	addi	a0,a0,-800 # 8001f058 <itable>
    80003380:	ffffe097          	auipc	ra,0xffffe
    80003384:	906080e7          	jalr	-1786(ra) # 80000c86 <release>
    80003388:	854a                	mv	a0,s2
    8000338a:	70a2                	ld	ra,40(sp)
    8000338c:	7402                	ld	s0,32(sp)
    8000338e:	64e2                	ld	s1,24(sp)
    80003390:	6942                	ld	s2,16(sp)
    80003392:	69a2                	ld	s3,8(sp)
    80003394:	6a02                	ld	s4,0(sp)
    80003396:	6145                	addi	sp,sp,48
    80003398:	8082                	ret
    8000339a:	00005517          	auipc	a0,0x5
    8000339e:	1e650513          	addi	a0,a0,486 # 80008580 <syscalls+0x130>
    800033a2:	ffffd097          	auipc	ra,0xffffd
    800033a6:	19a080e7          	jalr	410(ra) # 8000053c <panic>

00000000800033aa <fsinit>:
    800033aa:	7179                	addi	sp,sp,-48
    800033ac:	f406                	sd	ra,40(sp)
    800033ae:	f022                	sd	s0,32(sp)
    800033b0:	ec26                	sd	s1,24(sp)
    800033b2:	e84a                	sd	s2,16(sp)
    800033b4:	e44e                	sd	s3,8(sp)
    800033b6:	1800                	addi	s0,sp,48
    800033b8:	892a                	mv	s2,a0
    800033ba:	4585                	li	a1,1
    800033bc:	00000097          	auipc	ra,0x0
    800033c0:	a56080e7          	jalr	-1450(ra) # 80002e12 <bread>
    800033c4:	84aa                	mv	s1,a0
    800033c6:	0001c997          	auipc	s3,0x1c
    800033ca:	c7298993          	addi	s3,s3,-910 # 8001f038 <sb>
    800033ce:	02000613          	li	a2,32
    800033d2:	05850593          	addi	a1,a0,88
    800033d6:	854e                	mv	a0,s3
    800033d8:	ffffe097          	auipc	ra,0xffffe
    800033dc:	952080e7          	jalr	-1710(ra) # 80000d2a <memmove>
    800033e0:	8526                	mv	a0,s1
    800033e2:	00000097          	auipc	ra,0x0
    800033e6:	b60080e7          	jalr	-1184(ra) # 80002f42 <brelse>
    800033ea:	0009a703          	lw	a4,0(s3)
    800033ee:	102037b7          	lui	a5,0x10203
    800033f2:	04078793          	addi	a5,a5,64 # 10203040 <_entry-0x6fdfcfc0>
    800033f6:	02f71263          	bne	a4,a5,8000341a <fsinit+0x70>
    800033fa:	0001c597          	auipc	a1,0x1c
    800033fe:	c3e58593          	addi	a1,a1,-962 # 8001f038 <sb>
    80003402:	854a                	mv	a0,s2
    80003404:	00001097          	auipc	ra,0x1
    80003408:	b2c080e7          	jalr	-1236(ra) # 80003f30 <initlog>
    8000340c:	70a2                	ld	ra,40(sp)
    8000340e:	7402                	ld	s0,32(sp)
    80003410:	64e2                	ld	s1,24(sp)
    80003412:	6942                	ld	s2,16(sp)
    80003414:	69a2                	ld	s3,8(sp)
    80003416:	6145                	addi	sp,sp,48
    80003418:	8082                	ret
    8000341a:	00005517          	auipc	a0,0x5
    8000341e:	17650513          	addi	a0,a0,374 # 80008590 <syscalls+0x140>
    80003422:	ffffd097          	auipc	ra,0xffffd
    80003426:	11a080e7          	jalr	282(ra) # 8000053c <panic>

000000008000342a <iinit>:
    8000342a:	7179                	addi	sp,sp,-48
    8000342c:	f406                	sd	ra,40(sp)
    8000342e:	f022                	sd	s0,32(sp)
    80003430:	ec26                	sd	s1,24(sp)
    80003432:	e84a                	sd	s2,16(sp)
